TI ARM Assembler PC v20.2.5 Mon Nov 29 14:33:27 2021

Copyright (c) 1996-2018 Texas Instruments Incorporated
C:\Users\PSCHAU~1\AppData\Local\Temp\{DCC34CBA-9535-4573-905C-F9C061991809} PAGE    1

       1                    ;******************************************************************************
       2                    ;* TI ARM G3 C/C++ Codegen                                              PC v20.2.5.LTS *
       3                    ;* Date/Time created: Mon Nov 29 14:33:27 2021                                *
       4                    ;******************************************************************************
       5                            .compiler_opts --abi=eabi --arm_vmrs_si_workaround=off --code_state=16 --diag_wrap=off --embed
       6 00000000                   .thumb
       7                    
       8                    $C$DW$CU        .dwtag  DW_TAG_compile_unit
       9                            .dwattr $C$DW$CU, DW_AT_name("../main.c")
      10                            .dwattr $C$DW$CU, DW_AT_producer("TI TI ARM G3 C/C++ Codegen PC v20.2.5.LTS Copyright (c) 1996
      11                            .dwattr $C$DW$CU, DW_AT_TI_version(0x01)
      12                            .dwattr $C$DW$CU, DW_AT_comp_dir("C:\Users\pschaumont\workspace_ccs\workspace_ece4703b21\perfo
      13                            .global taps
      14                            .common taps,32,4
      15                    $C$DW$1 .dwtag  DW_TAG_variable
      16                            .dwattr $C$DW$1, DW_AT_name("taps")
      17                            .dwattr $C$DW$1, DW_AT_TI_symbol_name("taps")
      18                            .dwattr $C$DW$1, DW_AT_location[DW_OP_addr taps]
      19                            .dwattr $C$DW$1, DW_AT_type(*$C$DW$T$582)
      20                            .dwattr $C$DW$1, DW_AT_external
      21                            .dwattr $C$DW$1, DW_AT_decl_file("../main.c")
      22                            .dwattr $C$DW$1, DW_AT_decl_line(0x05)
      23                            .dwattr $C$DW$1, DW_AT_decl_column(0x0b)
      24                    
      25                            .global B
      26                            .common B,32,4
      27                    $C$DW$2 .dwtag  DW_TAG_variable
      28                            .dwattr $C$DW$2, DW_AT_name("B")
      29                            .dwattr $C$DW$2, DW_AT_TI_symbol_name("B")
      30                            .dwattr $C$DW$2, DW_AT_location[DW_OP_addr B]
      31                            .dwattr $C$DW$2, DW_AT_type(*$C$DW$T$582)
      32                            .dwattr $C$DW$2, DW_AT_external
      33                            .dwattr $C$DW$2, DW_AT_decl_file("../main.c")
      34                            .dwattr $C$DW$2, DW_AT_decl_line(0x06)
      35                            .dwattr $C$DW$2, DW_AT_decl_column(0x0b)
      36                    
      37                            .global head
      38 00000000                   .data
      39                            .align  2
      40                            .elfsym head,SYM_SIZE(2)
      41 00000000           head:
      42 00000000 00000000          .bits           0,16
      43                                            ; head @ 0
      44                    
      45                    $C$DW$3 .dwtag  DW_TAG_variable
      46                            .dwattr $C$DW$3, DW_AT_name("head")
      47                            .dwattr $C$DW$3, DW_AT_TI_symbol_name("head")
      48                            .dwattr $C$DW$3, DW_AT_location[DW_OP_addr head]
      49                            .dwattr $C$DW$3, DW_AT_type(*$C$DW$T$75)
      50                            .dwattr $C$DW$3, DW_AT_external
      51                            .dwattr $C$DW$3, DW_AT_decl_file("../main.c")
      52                            .dwattr $C$DW$3, DW_AT_decl_line(0x18)
      53                            .dwattr $C$DW$3, DW_AT_decl_column(0x0a)
      54                    
      55                    
TI ARM Assembler PC v20.2.5 Mon Nov 29 14:33:27 2021

Copyright (c) 1996-2018 Texas Instruments Incorporated
C:\Users\PSCHAU~1\AppData\Local\Temp\{DCC34CBA-9535-4573-905C-F9C061991809} PAGE    2

      56                    $C$DW$4 .dwtag  DW_TAG_subprogram
      57                            .dwattr $C$DW$4, DW_AT_name("xlaudio_adc14_to_f32")
      58                            .dwattr $C$DW$4, DW_AT_TI_symbol_name("xlaudio_adc14_to_f32")
      59                            .dwattr $C$DW$4, DW_AT_type(*$C$DW$T$175)
      60                            .dwattr $C$DW$4, DW_AT_declaration
      61                            .dwattr $C$DW$4, DW_AT_external
      62                            .dwattr $C$DW$4, DW_AT_decl_file("..\xlaudio_armdsp.h")
      63                            .dwattr $C$DW$4, DW_AT_decl_line(0x0f)
      64                            .dwattr $C$DW$4, DW_AT_decl_column(0x0b)
      65                    $C$DW$5 .dwtag  DW_TAG_formal_parameter
      66                            .dwattr $C$DW$5, DW_AT_type(*$C$DW$T$75)
      67                    
      68                            .dwendtag $C$DW$4
      69                    
      70                    
      71                    $C$DW$6 .dwtag  DW_TAG_subprogram
      72                            .dwattr $C$DW$6, DW_AT_name("xlaudio_f32_to_dac14")
      73                            .dwattr $C$DW$6, DW_AT_TI_symbol_name("xlaudio_f32_to_dac14")
      74                            .dwattr $C$DW$6, DW_AT_type(*$C$DW$T$75)
      75                            .dwattr $C$DW$6, DW_AT_declaration
      76                            .dwattr $C$DW$6, DW_AT_external
      77                            .dwattr $C$DW$6, DW_AT_decl_file("..\xlaudio_armdsp.h")
      78                            .dwattr $C$DW$6, DW_AT_decl_line(0x12)
      79                            .dwattr $C$DW$6, DW_AT_decl_column(0x0b)
      80                    $C$DW$7 .dwtag  DW_TAG_formal_parameter
      81                            .dwattr $C$DW$7, DW_AT_type(*$C$DW$T$175)
      82                    
      83                            .dwendtag $C$DW$6
      84                    
      85                    
      86                    $C$DW$8 .dwtag  DW_TAG_subprogram
      87                            .dwattr $C$DW$8, DW_AT_name("WDT_A_holdTimer")
      88                            .dwattr $C$DW$8, DW_AT_TI_symbol_name("WDT_A_holdTimer")
      89                            .dwattr $C$DW$8, DW_AT_declaration
      90                            .dwattr $C$DW$8, DW_AT_external
      91                            .dwattr $C$DW$8, DW_AT_decl_file("C:/ti/simplelink_msp432p4_sdk_3_40_01_02/source/ti/devices/m
      92                            .dwattr $C$DW$8, DW_AT_decl_line(0x77)
      93                            .dwattr $C$DW$8, DW_AT_decl_column(0x0d)
      94                            .dwendtag $C$DW$8
      95                    
      96                    
      97                    $C$DW$9 .dwtag  DW_TAG_subprogram
      98                            .dwattr $C$DW$9, DW_AT_name("xlaudio_measurePerfSample")
      99                            .dwattr $C$DW$9, DW_AT_TI_symbol_name("xlaudio_measurePerfSample")
     100                            .dwattr $C$DW$9, DW_AT_type(*$C$DW$T$27)
     101                            .dwattr $C$DW$9, DW_AT_declaration
     102                            .dwattr $C$DW$9, DW_AT_external
     103                            .dwattr $C$DW$9, DW_AT_decl_file("..\xlaudio.h")
     104                            .dwattr $C$DW$9, DW_AT_decl_line(0x55)
     105                            .dwattr $C$DW$9, DW_AT_decl_column(0x0a)
     106                    $C$DW$10        .dwtag  DW_TAG_formal_parameter
     107                            .dwattr $C$DW$10, DW_AT_type(*$C$DW$T$448)
     108                    
     109                            .dwendtag $C$DW$9
     110                    
TI ARM Assembler PC v20.2.5 Mon Nov 29 14:33:27 2021

Copyright (c) 1996-2018 Texas Instruments Incorporated
C:\Users\PSCHAU~1\AppData\Local\Temp\{DCC34CBA-9535-4573-905C-F9C061991809} PAGE    3

     111                    
     112                    $C$DW$11        .dwtag  DW_TAG_subprogram
     113                            .dwattr $C$DW$11, DW_AT_name("printf")
     114                            .dwattr $C$DW$11, DW_AT_TI_symbol_name("printf")
     115                            .dwattr $C$DW$11, DW_AT_type(*$C$DW$T$10)
     116                            .dwattr $C$DW$11, DW_AT_declaration
     117                            .dwattr $C$DW$11, DW_AT_external
     118                            .dwattr $C$DW$11, DW_AT_decl_file("C:/ti/ccs1040/ccs/tools/compiler/ti-cgt-arm_20.2.5.LTS/incl
     119                            .dwattr $C$DW$11, DW_AT_decl_line(0xf6)
     120                            .dwattr $C$DW$11, DW_AT_decl_column(0x19)
     121                    $C$DW$12        .dwtag  DW_TAG_formal_parameter
     122                            .dwattr $C$DW$12, DW_AT_type(*$C$DW$T$484)
     123                    
     124                    $C$DW$13        .dwtag  DW_TAG_unspecified_parameters
     125                    
     126                            .dwendtag $C$DW$11
     127                    
     128                    
     129                    $C$DW$14        .dwtag  DW_TAG_subprogram
     130                            .dwattr $C$DW$14, DW_AT_name("xlaudio_init_intr")
     131                            .dwattr $C$DW$14, DW_AT_TI_symbol_name("xlaudio_init_intr")
     132                            .dwattr $C$DW$14, DW_AT_declaration
     133                            .dwattr $C$DW$14, DW_AT_external
     134                            .dwattr $C$DW$14, DW_AT_decl_file("..\xlaudio.h")
     135                            .dwattr $C$DW$14, DW_AT_decl_line(0x3d)
     136                            .dwattr $C$DW$14, DW_AT_decl_column(0x06)
     137                    $C$DW$15        .dwtag  DW_TAG_formal_parameter
     138                            .dwattr $C$DW$15, DW_AT_type(*$C$DW$T$320)
     139                    
     140                    $C$DW$16        .dwtag  DW_TAG_formal_parameter
     141                            .dwattr $C$DW$16, DW_AT_type(*$C$DW$T$322)
     142                    
     143                    $C$DW$17        .dwtag  DW_TAG_formal_parameter
     144                            .dwattr $C$DW$17, DW_AT_type(*$C$DW$T$448)
     145                    
     146                            .dwendtag $C$DW$14
     147                    
     148                    
     149                    $C$DW$18        .dwtag  DW_TAG_subprogram
     150                            .dwattr $C$DW$18, DW_AT_name("xlaudio_run")
     151                            .dwattr $C$DW$18, DW_AT_TI_symbol_name("xlaudio_run")
     152                            .dwattr $C$DW$18, DW_AT_declaration
     153                            .dwattr $C$DW$18, DW_AT_external
     154                            .dwattr $C$DW$18, DW_AT_decl_file("..\xlaudio.h")
     155                            .dwattr $C$DW$18, DW_AT_decl_line(0x48)
     156                            .dwattr $C$DW$18, DW_AT_decl_column(0x06)
     157                            .dwendtag $C$DW$18
     158                    
     159                    ;       C:\ti\ccs1040\ccs\tools\compiler\ti-cgt-arm_20.2.5.LTS\bin\armopt.exe C:\\Users\\PSCHAU~1\\App
     160 00000000                   .sect   ".text"
     161                            .align  8
     162                            .clink
     163                            .thumbfunc processSampleCircular
     164 00000000                   .thumb
     165                            .global processSampleCircular
TI ARM Assembler PC v20.2.5 Mon Nov 29 14:33:27 2021

Copyright (c) 1996-2018 Texas Instruments Incorporated
C:\Users\PSCHAU~1\AppData\Local\Temp\{DCC34CBA-9535-4573-905C-F9C061991809} PAGE    4

     166                    
     167                    $C$DW$19        .dwtag  DW_TAG_subprogram
     168                            .dwattr $C$DW$19, DW_AT_name("processSampleCircular")
     169                            .dwattr $C$DW$19, DW_AT_low_pc(processSampleCircular)
     170                            .dwattr $C$DW$19, DW_AT_high_pc(0x00)
     171                            .dwattr $C$DW$19, DW_AT_TI_symbol_name("processSampleCircular")
     172                            .dwattr $C$DW$19, DW_AT_external
     173                            .dwattr $C$DW$19, DW_AT_type(*$C$DW$T$75)
     174                            .dwattr $C$DW$19, DW_AT_TI_begin_file("../main.c")
     175                            .dwattr $C$DW$19, DW_AT_TI_begin_line(0x1a)
     176                            .dwattr $C$DW$19, DW_AT_TI_begin_column(0x0a)
     177                            .dwattr $C$DW$19, DW_AT_decl_file("../main.c")
     178                            .dwattr $C$DW$19, DW_AT_decl_line(0x1a)
     179                            .dwattr $C$DW$19, DW_AT_decl_column(0x0a)
     180                            .dwattr $C$DW$19, DW_AT_TI_max_frame_size(0x10)
     181                            .dwpsn  file "../main.c",line 26,column 44,is_stmt,address processSampleCircular,isa 1
     182                    
     183                            .dwfde $C$DW$CIE, processSampleCircular
     184                    $C$DW$20        .dwtag  DW_TAG_formal_parameter
     185                            .dwattr $C$DW$20, DW_AT_name("x")
     186                            .dwattr $C$DW$20, DW_AT_TI_symbol_name("x")
     187                            .dwattr $C$DW$20, DW_AT_type(*$C$DW$T$10)
     188                            .dwattr $C$DW$20, DW_AT_location[DW_OP_reg0]
     189                    
     190                    
     191                    ;*****************************************************************************
     192                    ;* FUNCTION NAME: processSampleCircular                                      *
     193                    ;*                                                                           *
     194                    ;*   Regs Modified     : A1,A2,A3,A4,V1,V2,V3,V9,SP,LR,SR,D0,D0_hi,D1,D1_hi, *
     195                    ;*                           D2,D2_hi,D3,D3_hi,D4,D4_hi,D5,D5_hi,D6,D6_hi,D7,*
     196                    ;*                           D7_hi,FPEXC,FPSCR                               *
     197                    ;*   Regs Used         : A1,A2,A3,A4,V1,V2,V3,V9,SP,LR,SR,D0,D0_hi,D1,D1_hi, *
     198                    ;*                           D2,D2_hi,D3,D3_hi,D4,D4_hi,D5,D5_hi,D6,D6_hi,D7,*
     199                    ;*                           D7_hi,FPEXC,FPSCR                               *
     200                    ;*   Local Frame Size  : 0 Args + 0 Auto + 16 Save = 16 byte                 *
     201                    ;*****************************************************************************
     202                    processSampleCircular:
     203                    ;* --------------------------------------------------------------------------*
     204                    ;* V2    assigned to $O$C16
     205                    ;* A2    assigned to $O$C17
     206                    ;* V1    assigned to $O$C18
     207                    ;* A3    assigned to $O$C19
     208                    ;* A1    assigned to $O$C20
     209                    ;* D0    assigned to input
     210                    $C$DW$21        .dwtag  DW_TAG_variable
     211                            .dwattr $C$DW$21, DW_AT_name("input")
     212                            .dwattr $C$DW$21, DW_AT_TI_symbol_name("input")
     213                            .dwattr $C$DW$21, DW_AT_type(*$C$DW$T$175)
     214                            .dwattr $C$DW$21, DW_AT_location[DW_OP_regx 0x40]
     215                    
     216                            .dwcfi  cfa_offset, 0
     217 00000000 B570              PUSH      {V1, V2, V3, LR}      ; [DPU_V7M3_PIPE]  ; [ORIG 16-BIT INS]
     218                            .dwcfi  cfa_offset, 16
     219                            .dwcfi  save_reg_to_mem, 14, -4
     220                            .dwcfi  save_reg_to_mem, 6, -8
TI ARM Assembler PC v20.2.5 Mon Nov 29 14:33:27 2021

Copyright (c) 1996-2018 Texas Instruments Incorporated
C:\Users\PSCHAU~1\AppData\Local\Temp\{DCC34CBA-9535-4573-905C-F9C061991809} PAGE    5

     221                            .dwcfi  save_reg_to_mem, 5, -12
     222                            .dwcfi  save_reg_to_mem, 4, -16
     223                            .dwpsn  file "../main.c",line 27,column 21,is_stmt,isa 1
     224                    $C$DW$22        .dwtag  DW_TAG_TI_branch
     225                            .dwattr $C$DW$22, DW_AT_low_pc(0x00)
     226                            .dwattr $C$DW$22, DW_AT_name("xlaudio_adc14_to_f32")
     227                            .dwattr $C$DW$22, DW_AT_TI_call
     228                    
     229 00000002 FFFEF7FF!         BL        xlaudio_adc14_to_f32  ; [DPU_V7M3_PIPE] |27|  ; [KEEP 32-BIT INS]
     230                            ; CALL OCCURS {xlaudio_adc14_to_f32 }  ; [] |27| 
     231                            .dwpsn  file "../main.c",line 29,column 5,is_stmt,isa 1
     232 00000006 0500F240!         MOVW      V2, head+0            ; [DPU_V7M3_PIPE] |29|  ; [KEEP 32-BIT INS]
     233 0000000a 0500F2C0!         MOVT      V2, head+0            ; [DPU_V7M3_PIPE] |29|  ; [KEEP 32-BIT INS]
     234 0000000e 8829              LDRH      A2, [V2, #0]          ; [DPU_V7M3_PIPE] |29|  ; [ORIG 16-BIT INS]
     235 00000010 0400F240!         MOVW      V1, taps+0            ; [DPU_V7M3_PIPE] |29|  ; [KEEP 32-BIT INS]
     236 00000014 0400F2C0!         MOVT      V1, taps+0            ; [DPU_V7M3_PIPE] |29|  ; [KEEP 32-BIT INS]
     237 00000018 008A              LSLS      A3, A2, #2            ; [DPU_V7M3_PIPE] |29|  ; [ORIG 16-BIT INS]
     238 0000001a 0008F1C1          RSB       A1, A2, #8            ; [DPU_V7M3_PIPE] |29|  ; [KEEP 32-BIT INS]
     239 0000001e 4253              RSBS      A4, A3, #0            ; [DPU_V7M3_PIPE] |29|  ; [ORIG 16-BIT INS]
     240 00000020 7050EBC1          RSB       A1, A2, A1, LSR #29   ; [DPU_V7M3_PIPE] |29|  ; [KEEP 32-BIT INS]
     241                            .dwpsn  file "../main.c",line 34,column 9,is_stmt,isa 1
     242 00000024 0200F240!         MOVW      A3, B+0               ; [DPU_V7M3_PIPE] |34|  ; [KEEP 32-BIT INS]
     243                            .dwpsn  file "../main.c",line 29,column 5,is_stmt,isa 1
     244 00000028 3008              ADDS      A1, A1, #8            ; [DPU_V7M3_PIPE] |29|  ; [ORIG 16-BIT INS]
     245 0000002a 0080              LSLS      A1, A1, #2            ; [DPU_V7M3_PIPE] |29|  ; [ORIG 16-BIT INS]
     246                            .dwpsn  file "../main.c",line 34,column 9,is_stmt,isa 1
     247 0000002c 0200F2C0!         MOVT      A3, B+0               ; [DPU_V7M3_PIPE] |34|  ; [KEEP 32-BIT INS]
     248                            .dwpsn  file "../main.c",line 29,column 5,is_stmt,isa 1
     249 00000030 001FF020          BIC       A1, A1, #31           ; [DPU_V7M3_PIPE] |29|  ; [KEEP 32-BIT INS]
     250 00000034 1A1B              SUBS      A4, A4, A1            ; [DPU_V7M3_PIPE] |29|  ; [ORIG 16-BIT INS]
     251 00000036 191B              ADDS      A4, A4, V1            ; [DPU_V7M3_PIPE] |29|  ; [ORIG 16-BIT INS]
     252                            .dwpsn  file "../main.c",line 34,column 9,is_stmt,isa 1
     253 00000038 0088              LSLS      A1, A2, #2            ; [DPU_V7M3_PIPE] |34|  ; [ORIG 16-BIT INS]
     254                            .dwpsn  file "../main.c",line 29,column 5,is_stmt,isa 1
     255 0000003a 0A08ED83          VSTR.32   S0, [A4, #32]         ; [DPU_MERLIN_PIPE] |29|  ; [KEEP 32-BIT INS]
     256                            .dwpsn  file "../main.c",line 34,column 9,is_stmt,isa 1
     257 0000003e 061CF000          AND       V3, A1, #28           ; [DPU_V7M3_PIPE] |34|  ; [KEEP 32-BIT INS]
     258 00000042 0A00EDD4          VLDR.32   S1, [V1, #0]          ; [DPU_MERLIN_PIPE] |34|  ; [KEEP 32-BIT INS]
     259 00000046 1993              ADDS      A4, A3, V3            ; [DPU_V7M3_PIPE] |34|  ; [ORIG 16-BIT INS]
     260 00000048 1A00ED93          VLDR.32   S2, [A4, #0]          ; [DPU_MERLIN_PIPE] |34|  ; [KEEP 32-BIT INS]
     261 0000004c 2300              MOVS      A4, #0                ; [DPU_V7M3_PIPE] |34|  ; [ORIG 16-BIT INS]
     262 0000004e 0300F2C0          MOVT      A4, #0                ; [DPU_V7M3_PIPE] |34|  ; [KEEP 32-BIT INS]
     263 00000052 3A10EE00          VMOV      S0, A4                ; [DPU_MERLIN_PIPE] |34|  ; [KEEP 32-BIT INS]
     264 00000056 0A20EE01          VMLA.F32  S0, S2, S1            ; [DPU_MERLIN_PIPE] |34|  ; [KEEP 32-BIT INS]
     265 0000005a 1D03              ADDS      A4, A1, #4            ; [DPU_V7M3_PIPE] |34|  ; [ORIG 16-BIT INS]
     266 0000005c 031CF003          AND       A4, A4, #28           ; [DPU_V7M3_PIPE] |34|  ; [KEEP 32-BIT INS]
     267 00000060 0A01EDD4          VLDR.32   S1, [V1, #4]          ; [DPU_MERLIN_PIPE] |34|  ; [KEEP 32-BIT INS]
     268 00000064 18D3              ADDS      A4, A3, A4            ; [DPU_V7M3_PIPE] |34|  ; [ORIG 16-BIT INS]
     269 00000066 1A00ED93          VLDR.32   S2, [A4, #0]          ; [DPU_MERLIN_PIPE] |34|  ; [KEEP 32-BIT INS]
     270 0000006a 0A20EE01          VMLA.F32  S0, S2, S1            ; [DPU_MERLIN_PIPE] |34|  ; [KEEP 32-BIT INS]
     271 0000006e 0308F100          ADD       A4, A1, #8            ; [DPU_V7M3_PIPE] |34|  ; [KEEP 32-BIT INS]
     272 00000072 031CF003          AND       A4, A4, #28           ; [DPU_V7M3_PIPE] |34|  ; [KEEP 32-BIT INS]
     273 00000076 0A02EDD4          VLDR.32   S1, [V1, #8]          ; [DPU_MERLIN_PIPE] |34|  ; [KEEP 32-BIT INS]
     274 0000007a 18D3              ADDS      A4, A3, A4            ; [DPU_V7M3_PIPE] |34|  ; [ORIG 16-BIT INS]
     275 0000007c 1A00ED93          VLDR.32   S2, [A4, #0]          ; [DPU_MERLIN_PIPE] |34|  ; [KEEP 32-BIT INS]
TI ARM Assembler PC v20.2.5 Mon Nov 29 14:33:27 2021

Copyright (c) 1996-2018 Texas Instruments Incorporated
C:\Users\PSCHAU~1\AppData\Local\Temp\{DCC34CBA-9535-4573-905C-F9C061991809} PAGE    6

     276 00000080 0A20EE01          VMLA.F32  S0, S2, S1            ; [DPU_MERLIN_PIPE] |34|  ; [KEEP 32-BIT INS]
     277 00000084 030CF100          ADD       A4, A1, #12           ; [DPU_V7M3_PIPE] |34|  ; [KEEP 32-BIT INS]
     278 00000088 031CF003          AND       A4, A4, #28           ; [DPU_V7M3_PIPE] |34|  ; [KEEP 32-BIT INS]
     279 0000008c 0A03EDD4          VLDR.32   S1, [V1, #12]         ; [DPU_MERLIN_PIPE] |34|  ; [KEEP 32-BIT INS]
     280 00000090 18D3              ADDS      A4, A3, A4            ; [DPU_V7M3_PIPE] |34|  ; [ORIG 16-BIT INS]
     281 00000092 1A00ED93          VLDR.32   S2, [A4, #0]          ; [DPU_MERLIN_PIPE] |34|  ; [KEEP 32-BIT INS]
     282 00000096 0A20EE01          VMLA.F32  S0, S2, S1            ; [DPU_MERLIN_PIPE] |34|  ; [KEEP 32-BIT INS]
     283 0000009a 0310F1A0          SUB       A4, A1, #16           ; [DPU_V7M3_PIPE] |34|  ; [KEEP 32-BIT INS]
     284 0000009e 031CF003          AND       A4, A4, #28           ; [DPU_V7M3_PIPE] |34|  ; [KEEP 32-BIT INS]
     285 000000a2 0A04EDD4          VLDR.32   S1, [V1, #16]         ; [DPU_MERLIN_PIPE] |34|  ; [KEEP 32-BIT INS]
     286 000000a6 18D3              ADDS      A4, A3, A4            ; [DPU_V7M3_PIPE] |34|  ; [ORIG 16-BIT INS]
     287 000000a8 1A00ED93          VLDR.32   S2, [A4, #0]          ; [DPU_MERLIN_PIPE] |34|  ; [KEEP 32-BIT INS]
     288 000000ac 0A20EE01          VMLA.F32  S0, S2, S1            ; [DPU_MERLIN_PIPE] |34|  ; [KEEP 32-BIT INS]
     289 000000b0 030CF1A0          SUB       A4, A1, #12           ; [DPU_V7M3_PIPE] |34|  ; [KEEP 32-BIT INS]
     290 000000b4 031CF003          AND       A4, A4, #28           ; [DPU_V7M3_PIPE] |34|  ; [KEEP 32-BIT INS]
     291 000000b8 0A05EDD4          VLDR.32   S1, [V1, #20]         ; [DPU_MERLIN_PIPE] |34|  ; [KEEP 32-BIT INS]
     292 000000bc 18D3              ADDS      A4, A3, A4            ; [DPU_V7M3_PIPE] |34|  ; [ORIG 16-BIT INS]
     293 000000be 1A00ED93          VLDR.32   S2, [A4, #0]          ; [DPU_MERLIN_PIPE] |34|  ; [KEEP 32-BIT INS]
     294 000000c2 0A20EE01          VMLA.F32  S0, S2, S1            ; [DPU_MERLIN_PIPE] |34|  ; [KEEP 32-BIT INS]
     295 000000c6 0308F1A0          SUB       A4, A1, #8            ; [DPU_V7M3_PIPE] |34|  ; [KEEP 32-BIT INS]
     296 000000ca 031CF003          AND       A4, A4, #28           ; [DPU_V7M3_PIPE] |34|  ; [KEEP 32-BIT INS]
     297 000000ce 0A06EDD4          VLDR.32   S1, [V1, #24]         ; [DPU_MERLIN_PIPE] |34|  ; [KEEP 32-BIT INS]
     298 000000d2 18D3              ADDS      A4, A3, A4            ; [DPU_V7M3_PIPE] |34|  ; [ORIG 16-BIT INS]
     299 000000d4 1A00ED93          VLDR.32   S2, [A4, #0]          ; [DPU_MERLIN_PIPE] |34|  ; [KEEP 32-BIT INS]
     300 000000d8 1F00              SUBS      A1, A1, #4            ; [DPU_V7M3_PIPE] |34|  ; [ORIG 16-BIT INS]
     301 000000da 0A20EE01          VMLA.F32  S0, S2, S1            ; [DPU_MERLIN_PIPE] |34|  ; [KEEP 32-BIT INS]
     302 000000de 001CF000          AND       A1, A1, #28           ; [DPU_V7M3_PIPE] |34|  ; [KEEP 32-BIT INS]
     303 000000e2 1812              ADDS      A3, A3, A1            ; [DPU_V7M3_PIPE] |34|  ; [ORIG 16-BIT INS]
     304 000000e4 0A00EDD2          VLDR.32   S1, [A3, #0]          ; [DPU_MERLIN_PIPE] |34|  ; [KEEP 32-BIT INS]
     305 000000e8 1A07ED94          VLDR.32   S2, [V1, #28]         ; [DPU_MERLIN_PIPE] |34|  ; [KEEP 32-BIT INS]
     306                            .dwpsn  file "../main.c",line 36,column 5,is_stmt,isa 1
     307 000000ec 1C49              ADDS      A2, A2, #1            ; [DPU_V7M3_PIPE] |36|  ; [ORIG 16-BIT INS]
     308                            .dwpsn  file "../main.c",line 34,column 9,is_stmt,isa 1
     309 000000ee 0A81EE00          VMLA.F32  S0, S1, S2            ; [DPU_MERLIN_PIPE] |34|  ; [KEEP 32-BIT INS]
     310                            .dwpsn  file "../main.c",line 36,column 5,is_stmt,isa 1
     311 000000f2 0107F001          AND       A2, A2, #7            ; [DPU_V7M3_PIPE] |36|  ; [KEEP 32-BIT INS]
     312 000000f6 8029              STRH      A2, [V2, #0]          ; [DPU_V7M3_PIPE] |36|  ; [ORIG 16-BIT INS]
     313                            .dwpsn  file "../main.c",line 38,column 5,is_stmt,isa 1
     314                    $C$DW$23        .dwtag  DW_TAG_TI_branch
     315                            .dwattr $C$DW$23, DW_AT_low_pc(0x00)
     316                            .dwattr $C$DW$23, DW_AT_name("xlaudio_f32_to_dac14")
     317                            .dwattr $C$DW$23, DW_AT_TI_call
     318                    
     319 000000f8 FFFEF7FF!         BL        xlaudio_f32_to_dac14  ; [DPU_V7M3_PIPE] |38|  ; [KEEP 32-BIT INS]
     320                            ; CALL OCCURS {xlaudio_f32_to_dac14 }  ; [] |38| 
     321                    $C$DW$24        .dwtag  DW_TAG_TI_branch
     322                            .dwattr $C$DW$24, DW_AT_low_pc(0x00)
     323                            .dwattr $C$DW$24, DW_AT_TI_return
     324                    
     325 000000fc BD70              POP       {V1, V2, V3, PC}      ; [DPU_V7M3_PIPE]  ; [ORIG 16-BIT INS]
     326                            .dwcfi  cfa_offset, 0
     327                            .dwcfi  restore_reg, 6
     328                            .dwcfi  restore_reg, 5
     329                            .dwcfi  restore_reg, 4
     330                            ; BRANCH OCCURS                  ; [] 
TI ARM Assembler PC v20.2.5 Mon Nov 29 14:33:27 2021

Copyright (c) 1996-2018 Texas Instruments Incorporated
C:\Users\PSCHAU~1\AppData\Local\Temp\{DCC34CBA-9535-4573-905C-F9C061991809} PAGE    7

     331                            .dwattr $C$DW$19, DW_AT_TI_end_file("../main.c")
     332                            .dwattr $C$DW$19, DW_AT_TI_end_line(0x27)
     333                            .dwattr $C$DW$19, DW_AT_TI_end_column(0x01)
     334                            .dwendentry
     335                            .dwendtag $C$DW$19
     336                    
     337 000000fe                   .sect   ".text"
     338                            .align  8
     339                            .clink
     340                            .thumbfunc processSample
     341 00000100                   .thumb
     342                            .global processSample
     343                    
     344                    $C$DW$25        .dwtag  DW_TAG_subprogram
     345                            .dwattr $C$DW$25, DW_AT_name("processSample")
     346                            .dwattr $C$DW$25, DW_AT_low_pc(processSample)
     347                            .dwattr $C$DW$25, DW_AT_high_pc(0x00)
     348                            .dwattr $C$DW$25, DW_AT_TI_symbol_name("processSample")
     349                            .dwattr $C$DW$25, DW_AT_external
     350                            .dwattr $C$DW$25, DW_AT_type(*$C$DW$T$75)
     351                            .dwattr $C$DW$25, DW_AT_TI_begin_file("../main.c")
     352                            .dwattr $C$DW$25, DW_AT_TI_begin_line(0x08)
     353                            .dwattr $C$DW$25, DW_AT_TI_begin_column(0x0a)
     354                            .dwattr $C$DW$25, DW_AT_decl_file("../main.c")
     355                            .dwattr $C$DW$25, DW_AT_decl_line(0x08)
     356                            .dwattr $C$DW$25, DW_AT_decl_column(0x0a)
     357                            .dwattr $C$DW$25, DW_AT_TI_max_frame_size(0x08)
     358                            .dwpsn  file "../main.c",line 8,column 36,is_stmt,address processSample,isa 1
     359                    
     360                            .dwfde $C$DW$CIE, processSample
     361                    $C$DW$26        .dwtag  DW_TAG_formal_parameter
     362                            .dwattr $C$DW$26, DW_AT_name("x")
     363                            .dwattr $C$DW$26, DW_AT_TI_symbol_name("x")
     364                            .dwattr $C$DW$26, DW_AT_type(*$C$DW$T$10)
     365                            .dwattr $C$DW$26, DW_AT_location[DW_OP_reg0]
     366                    
     367                    
     368                    ;*****************************************************************************
     369                    ;* FUNCTION NAME: processSample                                              *
     370                    ;*                                                                           *
     371                    ;*   Regs Modified     : A1,A2,A3,A4,V9,SP,LR,SR,D0,D0_hi,D1,D1_hi,D2,D2_hi, *
     372                    ;*                           D3,D3_hi,D4,D4_hi,D5,D5_hi,D6,D6_hi,D7,D7_hi,   *
     373                    ;*                           FPEXC,FPSCR                                     *
     374                    ;*   Regs Used         : A1,A2,A3,A4,V9,SP,LR,SR,D0,D0_hi,D1,D1_hi,D2,D2_hi, *
     375                    ;*                           D3,D3_hi,D4,D4_hi,D5,D5_hi,D6,D6_hi,D7,D7_hi,   *
     376                    ;*                           FPEXC,FPSCR                                     *
     377                    ;*   Local Frame Size  : 0 Args + 0 Auto + 4 Save = 4 byte                   *
     378                    ;*****************************************************************************
     379                    processSample:
     380                    ;* --------------------------------------------------------------------------*
     381                    ;* A1    assigned to $O$C16
     382                    ;* D3_hi assigned to $O$C17
     383                    ;* D3    assigned to $O$C18
     384                    ;* D2_hi assigned to $O$C19
     385                    ;* D2    assigned to $O$C20
TI ARM Assembler PC v20.2.5 Mon Nov 29 14:33:27 2021

Copyright (c) 1996-2018 Texas Instruments Incorporated
C:\Users\PSCHAU~1\AppData\Local\Temp\{DCC34CBA-9535-4573-905C-F9C061991809} PAGE    8

     386                    ;* D1_hi assigned to $O$C21
     387                    ;* D1    assigned to $O$C22
     388                    ;* A2    assigned to $O$C23
     389                    ;* D0_hi assigned to input
     390                    $C$DW$27        .dwtag  DW_TAG_variable
     391                            .dwattr $C$DW$27, DW_AT_name("input")
     392                            .dwattr $C$DW$27, DW_AT_TI_symbol_name("input")
     393                            .dwattr $C$DW$27, DW_AT_type(*$C$DW$T$175)
     394                            .dwattr $C$DW$27, DW_AT_location[DW_OP_regx 0x41]
     395                    
     396                            .dwcfi  cfa_offset, 0
     397 00000100 B508              PUSH      {A4, LR}              ; [DPU_V7M3_PIPE]  ; [ORIG 16-BIT INS]
     398                            .dwcfi  cfa_offset, 8
     399                            .dwcfi  save_reg_to_mem, 14, -4
     400                            .dwcfi  save_reg_to_mem, 3, -8
     401                            .dwpsn  file "../main.c",line 9,column 21,is_stmt,isa 1
     402                    $C$DW$28        .dwtag  DW_TAG_TI_branch
     403                            .dwattr $C$DW$28, DW_AT_low_pc(0x00)
     404                            .dwattr $C$DW$28, DW_AT_name("xlaudio_adc14_to_f32")
     405                            .dwattr $C$DW$28, DW_AT_TI_call
     406                    
     407 00000102 FFFEF7FF!         BL        xlaudio_adc14_to_f32  ; [DPU_V7M3_PIPE] |9|  ; [KEEP 32-BIT INS]
     408                            ; CALL OCCURS {xlaudio_adc14_to_f32 }  ; [] |9| 
     409                            .dwpsn  file "../main.c",line 16,column 9,is_stmt,isa 1
     410 00000106 2000              MOVS      A1, #0                ; [DPU_V7M3_PIPE] |16|  ; [ORIG 16-BIT INS]
     411 00000108 0100F240!         MOVW      A2, B+0               ; [DPU_V7M3_PIPE] |16|  ; [KEEP 32-BIT INS]
     412                            .dwpsn  file "../main.c",line 9,column 21,is_stmt,isa 1
     413 0000010c 0A40EEF0          VMOV.F32  S1, S0                ; [DPU_MERLIN_PIPE] |9|  ; [KEEP 32-BIT INS]
     414                            .dwpsn  file "../main.c",line 16,column 9,is_stmt,isa 1
     415 00000110 0000F2C0          MOVT      A1, #0                ; [DPU_V7M3_PIPE] |16|  ; [KEEP 32-BIT INS]
     416 00000114 0A10EE00          VMOV      S0, A1                ; [DPU_MERLIN_PIPE] |16|  ; [KEEP 32-BIT INS]
     417 00000118 0100F2C0!         MOVT      A2, B+0               ; [DPU_V7M3_PIPE] |16|  ; [KEEP 32-BIT INS]
     418 0000011c 1A00ED91          VLDR.32   S2, [A2, #0]          ; [DPU_MERLIN_PIPE] |16|  ; [KEEP 32-BIT INS]
     419 00000120 0A81EE00          VMLA.F32  S0, S1, S2            ; [DPU_MERLIN_PIPE] |16|  ; [KEEP 32-BIT INS]
     420                            .dwpsn  file "../main.c",line 11,column 5,is_stmt,isa 1
     421 00000124 0000F240!         MOVW      A1, taps+0            ; [DPU_V7M3_PIPE] |11|  ; [KEEP 32-BIT INS]
     422 00000128 0000F2C0!         MOVT      A1, taps+0            ; [DPU_V7M3_PIPE] |11|  ; [KEEP 32-BIT INS]
     423                            .dwpsn  file "../main.c",line 16,column 9,is_stmt,isa 1
     424 0000012c 3A01EDD0          VLDR.32   S7, [A1, #4]          ; [DPU_MERLIN_PIPE] |16|  ; [KEEP 32-BIT INS]
     425 00000130 1A01ED91          VLDR.32   S2, [A2, #4]          ; [DPU_MERLIN_PIPE] |16|  ; [KEEP 32-BIT INS]
     426 00000134 0A81EE03          VMLA.F32  S0, S7, S2            ; [DPU_MERLIN_PIPE] |16|  ; [KEEP 32-BIT INS]
     427 00000138 3A02ED90          VLDR.32   S6, [A1, #8]          ; [DPU_MERLIN_PIPE] |16|  ; [KEEP 32-BIT INS]
     428 0000013c 1A02ED91          VLDR.32   S2, [A2, #8]          ; [DPU_MERLIN_PIPE] |16|  ; [KEEP 32-BIT INS]
     429 00000140 0A01EE03          VMLA.F32  S0, S6, S2            ; [DPU_MERLIN_PIPE] |16|  ; [KEEP 32-BIT INS]
     430 00000144 2A03EDD0          VLDR.32   S5, [A1, #12]         ; [DPU_MERLIN_PIPE] |16|  ; [KEEP 32-BIT INS]
     431 00000148 1A03ED91          VLDR.32   S2, [A2, #12]         ; [DPU_MERLIN_PIPE] |16|  ; [KEEP 32-BIT INS]
     432 0000014c 0A81EE02          VMLA.F32  S0, S5, S2            ; [DPU_MERLIN_PIPE] |16|  ; [KEEP 32-BIT INS]
     433 00000150 2A04ED90          VLDR.32   S4, [A1, #16]         ; [DPU_MERLIN_PIPE] |16|  ; [KEEP 32-BIT INS]
     434 00000154 1A04ED91          VLDR.32   S2, [A2, #16]         ; [DPU_MERLIN_PIPE] |16|  ; [KEEP 32-BIT INS]
     435 00000158 0A01EE02          VMLA.F32  S0, S4, S2            ; [DPU_MERLIN_PIPE] |16|  ; [KEEP 32-BIT INS]
     436 0000015c 1A05EDD0          VLDR.32   S3, [A1, #20]         ; [DPU_MERLIN_PIPE] |16|  ; [KEEP 32-BIT INS]
     437 00000160 1A05ED91          VLDR.32   S2, [A2, #20]         ; [DPU_MERLIN_PIPE] |16|  ; [KEEP 32-BIT INS]
     438 00000164 0A81EE01          VMLA.F32  S0, S3, S2            ; [DPU_MERLIN_PIPE] |16|  ; [KEEP 32-BIT INS]
     439 00000168 4A06ED91          VLDR.32   S8, [A2, #24]         ; [DPU_MERLIN_PIPE] |16|  ; [KEEP 32-BIT INS]
     440 0000016c 1A06ED90          VLDR.32   S2, [A1, #24]         ; [DPU_MERLIN_PIPE] |16|  ; [KEEP 32-BIT INS]
TI ARM Assembler PC v20.2.5 Mon Nov 29 14:33:27 2021

Copyright (c) 1996-2018 Texas Instruments Incorporated
C:\Users\PSCHAU~1\AppData\Local\Temp\{DCC34CBA-9535-4573-905C-F9C061991809} PAGE    9

     441 00000170 0A04EE01          VMLA.F32  S0, S2, S8            ; [DPU_MERLIN_PIPE] |16|  ; [KEEP 32-BIT INS]
     442 00000174 4A07EDD1          VLDR.32   S9, [A2, #28]         ; [DPU_MERLIN_PIPE] |16|  ; [KEEP 32-BIT INS]
     443 00000178 4A07ED90          VLDR.32   S8, [A1, #28]         ; [DPU_MERLIN_PIPE] |16|  ; [KEEP 32-BIT INS]
     444 0000017c 0A84EE04          VMLA.F32  S0, S9, S8            ; [DPU_MERLIN_PIPE] |16|  ; [KEEP 32-BIT INS]
     445                            .dwpsn  file "../main.c",line 11,column 5,is_stmt,isa 1
     446 00000180 0A00EDC0          VSTR.32   S1, [A1, #0]          ; [DPU_MERLIN_PIPE] |11|  ; [KEEP 32-BIT INS]
     447                            .dwpsn  file "../main.c",line 19,column 9,is_stmt,isa 1
     448 00000184 0A01EDC0          VSTR.32   S1, [A1, #4]          ; [DPU_MERLIN_PIPE] |19|  ; [KEEP 32-BIT INS]
     449 00000188 2A05ED80          VSTR.32   S4, [A1, #20]         ; [DPU_MERLIN_PIPE] |19|  ; [KEEP 32-BIT INS]
     450 0000018c 2A04EDC0          VSTR.32   S5, [A1, #16]         ; [DPU_MERLIN_PIPE] |19|  ; [KEEP 32-BIT INS]
     451 00000190 3A03ED80          VSTR.32   S6, [A1, #12]         ; [DPU_MERLIN_PIPE] |19|  ; [KEEP 32-BIT INS]
     452 00000194 3A02EDC0          VSTR.32   S7, [A1, #8]          ; [DPU_MERLIN_PIPE] |19|  ; [KEEP 32-BIT INS]
     453 00000198 1A06EDC0          VSTR.32   S3, [A1, #24]         ; [DPU_MERLIN_PIPE] |19|  ; [KEEP 32-BIT INS]
     454 0000019c 1A07ED80          VSTR.32   S2, [A1, #28]         ; [DPU_MERLIN_PIPE] |19|  ; [KEEP 32-BIT INS]
     455                            .dwpsn  file "../main.c",line 21,column 5,is_stmt,isa 1
     456                    $C$DW$29        .dwtag  DW_TAG_TI_branch
     457                            .dwattr $C$DW$29, DW_AT_low_pc(0x00)
     458                            .dwattr $C$DW$29, DW_AT_name("xlaudio_f32_to_dac14")
     459                            .dwattr $C$DW$29, DW_AT_TI_call
     460                    
     461 000001a0 FFFEF7FF!         BL        xlaudio_f32_to_dac14  ; [DPU_V7M3_PIPE] |21|  ; [KEEP 32-BIT INS]
     462                            ; CALL OCCURS {xlaudio_f32_to_dac14 }  ; [] |21| 
     463                    $C$DW$30        .dwtag  DW_TAG_TI_branch
     464                            .dwattr $C$DW$30, DW_AT_low_pc(0x00)
     465                            .dwattr $C$DW$30, DW_AT_TI_return
     466                    
     467 000001a4 BD08              POP       {A4, PC}              ; [DPU_V7M3_PIPE]  ; [ORIG 16-BIT INS]
     468                            .dwcfi  cfa_offset, 0
     469                            .dwcfi  restore_reg, 3
     470                            ; BRANCH OCCURS                  ; [] 
     471                            .dwattr $C$DW$25, DW_AT_TI_end_file("../main.c")
     472                            .dwattr $C$DW$25, DW_AT_TI_end_line(0x16)
     473                            .dwattr $C$DW$25, DW_AT_TI_end_column(0x01)
     474                            .dwendentry
     475                            .dwendtag $C$DW$25
     476                    
     477 000001a6                   .sect   ".text"
     478                            .align  8
     479                            .clink
     480                            .thumbfunc main
     481 000001a8                   .thumb
     482                            .global main
     483                    
     484                    $C$DW$31        .dwtag  DW_TAG_subprogram
     485                            .dwattr $C$DW$31, DW_AT_name("main")
     486                            .dwattr $C$DW$31, DW_AT_low_pc(main)
     487                            .dwattr $C$DW$31, DW_AT_high_pc(0x00)
     488                            .dwattr $C$DW$31, DW_AT_TI_symbol_name("main")
     489                            .dwattr $C$DW$31, DW_AT_external
     490                            .dwattr $C$DW$31, DW_AT_type(*$C$DW$T$10)
     491                            .dwattr $C$DW$31, DW_AT_TI_begin_file("../main.c")
     492                            .dwattr $C$DW$31, DW_AT_TI_begin_line(0x2b)
     493                            .dwattr $C$DW$31, DW_AT_TI_begin_column(0x05)
     494                            .dwattr $C$DW$31, DW_AT_decl_file("../main.c")
     495                            .dwattr $C$DW$31, DW_AT_decl_line(0x2b)
TI ARM Assembler PC v20.2.5 Mon Nov 29 14:33:27 2021

Copyright (c) 1996-2018 Texas Instruments Incorporated
C:\Users\PSCHAU~1\AppData\Local\Temp\{DCC34CBA-9535-4573-905C-F9C061991809} PAGE   10

     496                            .dwattr $C$DW$31, DW_AT_decl_column(0x05)
     497                            .dwattr $C$DW$31, DW_AT_TI_max_frame_size(0x08)
     498                            .dwpsn  file "../main.c",line 43,column 16,is_stmt,address main,isa 1
     499                    
     500                            .dwfde $C$DW$CIE, main
     501                    
     502                    ;*****************************************************************************
     503                    ;* FUNCTION NAME: main                                                       *
     504                    ;*                                                                           *
     505                    ;*   Regs Modified     : A1,A2,A3,A4,V1,V9,SP,LR,SR,D0,D0_hi,D1,D1_hi,D2,    *
     506                    ;*                           D2_hi,D3,D3_hi,D4,D4_hi,D5,D5_hi,D6,D6_hi,D7,   *
     507                    ;*                           D7_hi,FPEXC,FPSCR                               *
     508                    ;*   Regs Used         : A1,A2,A3,A4,V1,V9,SP,LR,SR,D0,D0_hi,D1,D1_hi,D2,    *
     509                    ;*                           D2_hi,D3,D3_hi,D4,D4_hi,D5,D5_hi,D6,D6_hi,D7,   *
     510                    ;*                           D7_hi,FPEXC,FPSCR                               *
     511                    ;*   Local Frame Size  : 0 Args + 0 Auto + 8 Save = 8 byte                   *
     512                    ;*****************************************************************************
     513                    main:
     514                    ;* --------------------------------------------------------------------------*
     515                    ;* V1    assigned to $O$C1
     516                    ;* A2    assigned to c
     517                    $C$DW$32        .dwtag  DW_TAG_variable
     518                            .dwattr $C$DW$32, DW_AT_name("c")
     519                            .dwattr $C$DW$32, DW_AT_TI_symbol_name("c")
     520                            .dwattr $C$DW$32, DW_AT_type(*$C$DW$T$10)
     521                            .dwattr $C$DW$32, DW_AT_location[DW_OP_reg1]
     522                    
     523                            .dwcfi  cfa_offset, 0
     524 000001a8 B510              PUSH      {V1, LR}              ; [DPU_V7M3_PIPE]  ; [ORIG 16-BIT INS]
     525                            .dwcfi  cfa_offset, 8
     526                            .dwcfi  save_reg_to_mem, 14, -4
     527                            .dwcfi  save_reg_to_mem, 4, -8
     528                            .dwpsn  file "../main.c",line 44,column 5,is_stmt,isa 1
     529                    $C$DW$33        .dwtag  DW_TAG_TI_branch
     530                            .dwattr $C$DW$33, DW_AT_low_pc(0x00)
     531                            .dwattr $C$DW$33, DW_AT_name("WDT_A_holdTimer")
     532                            .dwattr $C$DW$33, DW_AT_TI_call
     533                    
     534 000001aa FFFEF7FF!         BL        WDT_A_holdTimer       ; [DPU_V7M3_PIPE] |44|  ; [KEEP 32-BIT INS]
     535                            ; CALL OCCURS {WDT_A_holdTimer }  ; [] |44| 
     536                            .dwpsn  file "../main.c",line 46,column 11,is_stmt,isa 1
     537 000001ae 0400F240!         MOVW      V1, processSample+0   ; [DPU_V7M3_PIPE] |46|  ; [KEEP 32-BIT INS]
     538 000001b2 0400F2C0!         MOVT      V1, processSample+0   ; [DPU_V7M3_PIPE] |46|  ; [KEEP 32-BIT INS]
     539 000001b6 4620              MOV       A1, V1                ; [DPU_V7M3_PIPE] |46|  ; [ORIG 16-BIT INS]
     540                    $C$DW$34        .dwtag  DW_TAG_TI_branch
     541                            .dwattr $C$DW$34, DW_AT_low_pc(0x00)
     542                            .dwattr $C$DW$34, DW_AT_name("xlaudio_measurePerfSample")
     543                            .dwattr $C$DW$34, DW_AT_TI_call
     544                    
     545 000001b8 FFFEF7FF!         BL        xlaudio_measurePerfSample ; [DPU_V7M3_PIPE] |46|  ; [KEEP 32-BIT INS]
     546                            ; CALL OCCURS {xlaudio_measurePerfSample }  ; [] |46| 
     547 000001bc 4601              MOV       A2, A1                ; [DPU_V7M3_PIPE] |46|  ; [ORIG 16-BIT INS]
     548                            .dwpsn  file "../main.c",line 47,column 5,is_stmt,isa 1
     549 000001be A006              ADR       A1, $C$SL1            ; [DPU_V7M3_PIPE] |47|  ; [ORIG 16-BIT INS]
     550                    $C$DW$35        .dwtag  DW_TAG_TI_branch
TI ARM Assembler PC v20.2.5 Mon Nov 29 14:33:27 2021

Copyright (c) 1996-2018 Texas Instruments Incorporated
C:\Users\PSCHAU~1\AppData\Local\Temp\{DCC34CBA-9535-4573-905C-F9C061991809} PAGE   11

     551                            .dwattr $C$DW$35, DW_AT_low_pc(0x00)
     552                            .dwattr $C$DW$35, DW_AT_name("printf")
     553                            .dwattr $C$DW$35, DW_AT_TI_call
     554                    
     555 000001c0 FFFEF7FF!         BL        printf                ; [DPU_V7M3_PIPE] |47|  ; [KEEP 32-BIT INS]
     556                            ; CALL OCCURS {printf }          ; [] |47| 
     557                            .dwpsn  file "../main.c",line 49,column 5,is_stmt,isa 1
     558 000001c4 2002              MOVS      A1, #2                ; [DPU_V7M3_PIPE] |49|  ; [ORIG 16-BIT INS]
     559 000001c6 2101              MOVS      A2, #1                ; [DPU_V7M3_PIPE] |49|  ; [ORIG 16-BIT INS]
     560 000001c8 4622              MOV       A3, V1                ; [DPU_V7M3_PIPE] |49|  ; [ORIG 16-BIT INS]
     561                    $C$DW$36        .dwtag  DW_TAG_TI_branch
     562                            .dwattr $C$DW$36, DW_AT_low_pc(0x00)
     563                            .dwattr $C$DW$36, DW_AT_name("xlaudio_init_intr")
     564                            .dwattr $C$DW$36, DW_AT_TI_call
     565                    
     566 000001ca FFFEF7FF!         BL        xlaudio_init_intr     ; [DPU_V7M3_PIPE] |49|  ; [KEEP 32-BIT INS]
     567                            ; CALL OCCURS {xlaudio_init_intr }  ; [] |49| 
     568                            .dwpsn  file "../main.c",line 50,column 5,is_stmt,isa 1
     569                    $C$DW$37        .dwtag  DW_TAG_TI_branch
     570                            .dwattr $C$DW$37, DW_AT_low_pc(0x00)
     571                            .dwattr $C$DW$37, DW_AT_name("xlaudio_run")
     572                            .dwattr $C$DW$37, DW_AT_TI_call
     573                    
     574 000001ce FFFEF7FF!         BL        xlaudio_run           ; [DPU_V7M3_PIPE] |50|  ; [KEEP 32-BIT INS]
     575                            ; CALL OCCURS {xlaudio_run }     ; [] |50| 
     576                            .dwpsn  file "../main.c",line 52,column 5,is_stmt,isa 1
     577 000001d2 2001              MOVS      A1, #1                ; [DPU_V7M3_PIPE] |52|  ; [ORIG 16-BIT INS]
     578                    $C$DW$38        .dwtag  DW_TAG_TI_branch
     579                            .dwattr $C$DW$38, DW_AT_low_pc(0x00)
     580                            .dwattr $C$DW$38, DW_AT_TI_return
     581                    
     582 000001d4 BD10              POP       {V1, PC}              ; [DPU_V7M3_PIPE]  ; [ORIG 16-BIT INS]
     583                            .dwcfi  cfa_offset, 0
     584                            .dwcfi  restore_reg, 4
     585                            ; BRANCH OCCURS                  ; [] 
     586                            .dwattr $C$DW$31, DW_AT_TI_end_file("../main.c")
     587                            .dwattr $C$DW$31, DW_AT_TI_end_line(0x35)
     588                            .dwattr $C$DW$31, DW_AT_TI_end_column(0x01)
     589                            .dwendentry
     590                            .dwendtag $C$DW$31
     591                    
     592 00000000                   .sect   ".text:__signbitl"
     593                            .align  8
     594                            .clink
     595                            .thumbfunc __signbitl
     596 00000000                   .thumb
     597                            .global __signbitl
     598                    
     599                    $C$DW$39        .dwtag  DW_TAG_subprogram
     600                            .dwattr $C$DW$39, DW_AT_name("__signbitl")
     601                            .dwattr $C$DW$39, DW_AT_low_pc(__signbitl)
     602                            .dwattr $C$DW$39, DW_AT_high_pc(0x00)
     603                            .dwattr $C$DW$39, DW_AT_TI_symbol_name("__signbitl")
     604                            .dwattr $C$DW$39, DW_AT_external
     605                            .dwattr $C$DW$39, DW_AT_type(*$C$DW$T$10)
TI ARM Assembler PC v20.2.5 Mon Nov 29 14:33:27 2021

Copyright (c) 1996-2018 Texas Instruments Incorporated
C:\Users\PSCHAU~1\AppData\Local\Temp\{DCC34CBA-9535-4573-905C-F9C061991809} PAGE   12

     606                            .dwattr $C$DW$39, DW_AT_TI_begin_file("C:/ti/ccs1040/ccs/tools/compiler/ti-cgt-arm_20.2.5.LTS/
     607                            .dwattr $C$DW$39, DW_AT_TI_begin_line(0x16f)
     608                            .dwattr $C$DW$39, DW_AT_TI_begin_column(0x25)
     609                            .dwattr $C$DW$39, DW_AT_decl_file("C:/ti/ccs1040/ccs/tools/compiler/ti-cgt-arm_20.2.5.LTS/incl
     610                            .dwattr $C$DW$39, DW_AT_decl_line(0x16f)
     611                            .dwattr $C$DW$39, DW_AT_decl_column(0x25)
     612                            .dwattr $C$DW$39, DW_AT_TI_max_frame_size(0x00)
     613                            .dwpsn  file "C:/ti/ccs1040/ccs/tools/compiler/ti-cgt-arm_20.2.5.LTS/include/_defs.h",line 368
     614                    
     615                            .dwfde $C$DW$CIE, __signbitl
     616                    $C$DW$40        .dwtag  DW_TAG_formal_parameter
     617                            .dwattr $C$DW$40, DW_AT_name("e")
     618                            .dwattr $C$DW$40, DW_AT_TI_symbol_name("e")
     619                            .dwattr $C$DW$40, DW_AT_type(*$C$DW$T$18)
     620                            .dwattr $C$DW$40, DW_AT_location[DW_OP_regx 0x40]
     621                    
     622                    
     623                    ;*****************************************************************************
     624                    ;* FUNCTION NAME: __signbitl                                                 *
     625                    ;*                                                                           *
     626                    ;*   Regs Modified     : A1,A2,A3,SR                                         *
     627                    ;*   Regs Used         : A1,A2,A3,LR,SR,D0,D0_hi                             *
     628                    ;*   Local Frame Size  : 0 Args + 0 Auto + 0 Save = 0 byte                   *
     629                    ;*****************************************************************************
     630 00000000           __signbitl:
     631                    ;* --------------------------------------------------------------------------*
     632                            .dwcfi  cfa_offset, 0
     633 00000000 1B10EC52          VMOV      A2,A3, D0             ; [DPU_MERLIN_PIPE] |368|  ; [KEEP 32-BIT INS]
     634 00000004 4610              MOV       A1, A3                ; [DPU_V7M3_PIPE] |368|  ; [ORIG 16-BIT INS]
     635                            .dwpsn  file "C:/ti/ccs1040/ccs/tools/compiler/ti-cgt-arm_20.2.5.LTS/include/_defs.h",line 368
     636 00000006 4100F04F          MOV       A2, #-2147483648      ; [DPU_V7M3_PIPE] |368|  ; [KEEP 32-BIT INS]
     637 0000000a 4001              ANDS      A2, A2, A1            ; [DPU_V7M3_PIPE] |368|  ; [ORIG 16-BIT INS]
     638 0000000c 2200              MOVS      A3, #0                ; [DPU_V7M3_PIPE] |368|  ; [ORIG 16-BIT INS]
     639 0000000e 2000              MOVS      A1, #0                ; [DPU_V7M3_PIPE] |368|  ; [ORIG 16-BIT INS]
     640 00000010 0009              LSLS      A2, A2, #0            ; [DPU_V7M3_PIPE] |368|  ; [ORIG 16-BIT INS]
     641 00000012 BF0C              ITE       EQ                    ; [DPU_V7M3_PIPE]  ; [ORIG 16-BIT INS]
     642 00000014 2A00              CMPEQ     A3, #0                ; [DPU_V7M3_PIPE] |368|  ; [ORIG 16-BIT INS]
     643 00000016 2001              MOVNE     A1, #1                ; [DPU_V7M3_PIPE] |368|  ; [ORIG 16-BIT INS]
     644                    $C$DW$41        .dwtag  DW_TAG_TI_branch
     645                            .dwattr $C$DW$41, DW_AT_low_pc(0x00)
     646                            .dwattr $C$DW$41, DW_AT_TI_return
     647                    
     648 00000018 4770              BX        LR                    ; [DPU_V7M3_PIPE]  ; [ORIG 16-BIT INS]
     649                            ; BRANCH OCCURS                  ; [] 
     650                            .dwattr $C$DW$39, DW_AT_TI_end_file("C:/ti/ccs1040/ccs/tools/compiler/ti-cgt-arm_20.2.5.LTS/in
     651                            .dwattr $C$DW$39, DW_AT_TI_end_line(0x170)
     652                            .dwattr $C$DW$39, DW_AT_TI_end_column(0x2b)
     653                            .dwendentry
     654                            .dwendtag $C$DW$39
     655                    
     656 00000000                   .sect   ".text:__signbitf"
     657                            .align  8
     658                            .clink
     659                            .thumbfunc __signbitf
     660 00000000                   .thumb
TI ARM Assembler PC v20.2.5 Mon Nov 29 14:33:27 2021

Copyright (c) 1996-2018 Texas Instruments Incorporated
C:\Users\PSCHAU~1\AppData\Local\Temp\{DCC34CBA-9535-4573-905C-F9C061991809} PAGE   13

     661                            .global __signbitf
     662                    
     663                    $C$DW$42        .dwtag  DW_TAG_subprogram
     664                            .dwattr $C$DW$42, DW_AT_name("__signbitf")
     665                            .dwattr $C$DW$42, DW_AT_low_pc(__signbitf)
     666                            .dwattr $C$DW$42, DW_AT_high_pc(0x00)
     667                            .dwattr $C$DW$42, DW_AT_TI_symbol_name("__signbitf")
     668                            .dwattr $C$DW$42, DW_AT_external
     669                            .dwattr $C$DW$42, DW_AT_type(*$C$DW$T$10)
     670                            .dwattr $C$DW$42, DW_AT_TI_begin_file("C:/ti/ccs1040/ccs/tools/compiler/ti-cgt-arm_20.2.5.LTS/
     671                            .dwattr $C$DW$42, DW_AT_TI_begin_line(0x16d)
     672                            .dwattr $C$DW$42, DW_AT_TI_begin_column(0x25)
     673                            .dwattr $C$DW$42, DW_AT_decl_file("C:/ti/ccs1040/ccs/tools/compiler/ti-cgt-arm_20.2.5.LTS/incl
     674                            .dwattr $C$DW$42, DW_AT_decl_line(0x16d)
     675                            .dwattr $C$DW$42, DW_AT_decl_column(0x25)
     676                            .dwattr $C$DW$42, DW_AT_TI_max_frame_size(0x00)
     677                            .dwpsn  file "C:/ti/ccs1040/ccs/tools/compiler/ti-cgt-arm_20.2.5.LTS/include/_defs.h",line 366
     678                    
     679                            .dwfde $C$DW$CIE, __signbitf
     680                    $C$DW$43        .dwtag  DW_TAG_formal_parameter
     681                            .dwattr $C$DW$43, DW_AT_name("f")
     682                            .dwattr $C$DW$43, DW_AT_TI_symbol_name("f")
     683                            .dwattr $C$DW$43, DW_AT_type(*$C$DW$T$16)
     684                            .dwattr $C$DW$43, DW_AT_location[DW_OP_regx 0x40]
     685                    
     686                    
     687                    ;*****************************************************************************
     688                    ;* FUNCTION NAME: __signbitf                                                 *
     689                    ;*                                                                           *
     690                    ;*   Regs Modified     : A1,SR                                               *
     691                    ;*   Regs Used         : A1,LR,SR,D0                                         *
     692                    ;*   Local Frame Size  : 0 Args + 0 Auto + 0 Save = 0 byte                   *
     693                    ;*****************************************************************************
     694                    __signbitf:
     695                    ;* --------------------------------------------------------------------------*
     696                    ;* D0    assigned to f
     697                    $C$DW$44        .dwtag  DW_TAG_variable
     698                            .dwattr $C$DW$44, DW_AT_name("f")
     699                            .dwattr $C$DW$44, DW_AT_TI_symbol_name("f")
     700                            .dwattr $C$DW$44, DW_AT_type(*$C$DW$T$578)
     701                            .dwattr $C$DW$44, DW_AT_location[DW_OP_regx 0x40]
     702                    
     703                            .dwcfi  cfa_offset, 0
     704                            .dwpsn  file "C:/ti/ccs1040/ccs/tools/compiler/ti-cgt-arm_20.2.5.LTS/include/_defs.h",line 366
     705 00000000 0A10EE10          VMOV      A1, S0                ; [DPU_MERLIN_PIPE] |366|  ; [KEEP 32-BIT INS]
     706 00000004 0FC0              LSRS      A1, A1, #31           ; [DPU_V7M3_PIPE] |366|  ; [ORIG 16-BIT INS]
     707                    $C$DW$45        .dwtag  DW_TAG_TI_branch
     708                            .dwattr $C$DW$45, DW_AT_low_pc(0x00)
     709                            .dwattr $C$DW$45, DW_AT_TI_return
     710                    
     711 00000006 4770              BX        LR                    ; [DPU_V7M3_PIPE]  ; [ORIG 16-BIT INS]
     712                            ; BRANCH OCCURS                  ; [] 
     713                            .dwattr $C$DW$42, DW_AT_TI_end_file("C:/ti/ccs1040/ccs/tools/compiler/ti-cgt-arm_20.2.5.LTS/in
     714                            .dwattr $C$DW$42, DW_AT_TI_end_line(0x16e)
     715                            .dwattr $C$DW$42, DW_AT_TI_end_column(0x29)
TI ARM Assembler PC v20.2.5 Mon Nov 29 14:33:27 2021

Copyright (c) 1996-2018 Texas Instruments Incorporated
C:\Users\PSCHAU~1\AppData\Local\Temp\{DCC34CBA-9535-4573-905C-F9C061991809} PAGE   14

     716                            .dwendentry
     717                            .dwendtag $C$DW$42
     718                    
     719 00000000                   .sect   ".text:__signbit"
     720                            .align  8
     721                            .clink
     722                            .thumbfunc __signbit
     723 00000000                   .thumb
     724                            .global __signbit
     725                    
     726                    $C$DW$46        .dwtag  DW_TAG_subprogram
     727                            .dwattr $C$DW$46, DW_AT_name("__signbit")
     728                            .dwattr $C$DW$46, DW_AT_low_pc(__signbit)
     729                            .dwattr $C$DW$46, DW_AT_high_pc(0x00)
     730                            .dwattr $C$DW$46, DW_AT_TI_symbol_name("__signbit")
     731                            .dwattr $C$DW$46, DW_AT_external
     732                            .dwattr $C$DW$46, DW_AT_type(*$C$DW$T$10)
     733                            .dwattr $C$DW$46, DW_AT_TI_begin_file("C:/ti/ccs1040/ccs/tools/compiler/ti-cgt-arm_20.2.5.LTS/
     734                            .dwattr $C$DW$46, DW_AT_TI_begin_line(0x16b)
     735                            .dwattr $C$DW$46, DW_AT_TI_begin_column(0x25)
     736                            .dwattr $C$DW$46, DW_AT_decl_file("C:/ti/ccs1040/ccs/tools/compiler/ti-cgt-arm_20.2.5.LTS/incl
     737                            .dwattr $C$DW$46, DW_AT_decl_line(0x16b)
     738                            .dwattr $C$DW$46, DW_AT_decl_column(0x25)
     739                            .dwattr $C$DW$46, DW_AT_TI_max_frame_size(0x00)
     740                            .dwpsn  file "C:/ti/ccs1040/ccs/tools/compiler/ti-cgt-arm_20.2.5.LTS/include/_defs.h",line 364
     741                    
     742                            .dwfde $C$DW$CIE, __signbit
     743                    $C$DW$47        .dwtag  DW_TAG_formal_parameter
     744                            .dwattr $C$DW$47, DW_AT_name("d")
     745                            .dwattr $C$DW$47, DW_AT_TI_symbol_name("d")
     746                            .dwattr $C$DW$47, DW_AT_type(*$C$DW$T$17)
     747                            .dwattr $C$DW$47, DW_AT_location[DW_OP_regx 0x40]
     748                    
     749                    
     750                    ;*****************************************************************************
     751                    ;* FUNCTION NAME: __signbit                                                  *
     752                    ;*                                                                           *
     753                    ;*   Regs Modified     : A1,A2,A3,SR                                         *
     754                    ;*   Regs Used         : A1,A2,A3,LR,SR,D0,D0_hi                             *
     755                    ;*   Local Frame Size  : 0 Args + 0 Auto + 0 Save = 0 byte                   *
     756                    ;*****************************************************************************
     757 00000000           __signbit:
     758                    ;* --------------------------------------------------------------------------*
     759                            .dwcfi  cfa_offset, 0
     760 00000000 1B10EC52          VMOV      A2,A3, D0             ; [DPU_MERLIN_PIPE] |364|  ; [KEEP 32-BIT INS]
     761 00000004 4610              MOV       A1, A3                ; [DPU_V7M3_PIPE] |364|  ; [ORIG 16-BIT INS]
     762                            .dwpsn  file "C:/ti/ccs1040/ccs/tools/compiler/ti-cgt-arm_20.2.5.LTS/include/_defs.h",line 364
     763 00000006 4100F04F          MOV       A2, #-2147483648      ; [DPU_V7M3_PIPE] |364|  ; [KEEP 32-BIT INS]
     764 0000000a 4001              ANDS      A2, A2, A1            ; [DPU_V7M3_PIPE] |364|  ; [ORIG 16-BIT INS]
     765 0000000c 2200              MOVS      A3, #0                ; [DPU_V7M3_PIPE] |364|  ; [ORIG 16-BIT INS]
     766 0000000e 2000              MOVS      A1, #0                ; [DPU_V7M3_PIPE] |364|  ; [ORIG 16-BIT INS]
     767 00000010 0009              LSLS      A2, A2, #0            ; [DPU_V7M3_PIPE] |364|  ; [ORIG 16-BIT INS]
     768 00000012 BF0C              ITE       EQ                    ; [DPU_V7M3_PIPE]  ; [ORIG 16-BIT INS]
     769 00000014 2A00              CMPEQ     A3, #0                ; [DPU_V7M3_PIPE] |364|  ; [ORIG 16-BIT INS]
     770 00000016 2001              MOVNE     A1, #1                ; [DPU_V7M3_PIPE] |364|  ; [ORIG 16-BIT INS]
TI ARM Assembler PC v20.2.5 Mon Nov 29 14:33:27 2021

Copyright (c) 1996-2018 Texas Instruments Incorporated
C:\Users\PSCHAU~1\AppData\Local\Temp\{DCC34CBA-9535-4573-905C-F9C061991809} PAGE   15

     771                    $C$DW$48        .dwtag  DW_TAG_TI_branch
     772                            .dwattr $C$DW$48, DW_AT_low_pc(0x00)
     773                            .dwattr $C$DW$48, DW_AT_TI_return
     774                    
     775 00000018 4770              BX        LR                    ; [DPU_V7M3_PIPE]  ; [ORIG 16-BIT INS]
     776                            ; BRANCH OCCURS                  ; [] 
     777                            .dwattr $C$DW$46, DW_AT_TI_end_file("C:/ti/ccs1040/ccs/tools/compiler/ti-cgt-arm_20.2.5.LTS/in
     778                            .dwattr $C$DW$46, DW_AT_TI_end_line(0x16c)
     779                            .dwattr $C$DW$46, DW_AT_TI_end_column(0x2a)
     780                            .dwendentry
     781                            .dwendtag $C$DW$46
     782                    
     783 00000000                   .sect   ".text:__isnormall"
     784                            .align  8
     785                            .clink
     786                            .thumbfunc __isnormall
     787 00000000                   .thumb
     788                            .global __isnormall
     789                    
     790                    $C$DW$49        .dwtag  DW_TAG_subprogram
     791                            .dwattr $C$DW$49, DW_AT_name("__isnormall")
     792                            .dwattr $C$DW$49, DW_AT_low_pc(__isnormall)
     793                            .dwattr $C$DW$49, DW_AT_high_pc(0x00)
     794                            .dwattr $C$DW$49, DW_AT_TI_symbol_name("__isnormall")
     795                            .dwattr $C$DW$49, DW_AT_external
     796                            .dwattr $C$DW$49, DW_AT_type(*$C$DW$T$10)
     797                            .dwattr $C$DW$49, DW_AT_TI_begin_file("C:/ti/ccs1040/ccs/tools/compiler/ti-cgt-arm_20.2.5.LTS/
     798                            .dwattr $C$DW$49, DW_AT_TI_begin_line(0x167)
     799                            .dwattr $C$DW$49, DW_AT_TI_begin_column(0x25)
     800                            .dwattr $C$DW$49, DW_AT_decl_file("C:/ti/ccs1040/ccs/tools/compiler/ti-cgt-arm_20.2.5.LTS/incl
     801                            .dwattr $C$DW$49, DW_AT_decl_line(0x167)
     802                            .dwattr $C$DW$49, DW_AT_decl_column(0x25)
     803                            .dwattr $C$DW$49, DW_AT_TI_max_frame_size(0x10)
     804                            .dwpsn  file "C:/ti/ccs1040/ccs/tools/compiler/ti-cgt-arm_20.2.5.LTS/include/_defs.h",line 360
     805                    
     806                            .dwfde $C$DW$CIE, __isnormall
     807                    $C$DW$50        .dwtag  DW_TAG_formal_parameter
     808                            .dwattr $C$DW$50, DW_AT_name("e")
     809                            .dwattr $C$DW$50, DW_AT_TI_symbol_name("e")
     810                            .dwattr $C$DW$50, DW_AT_type(*$C$DW$T$18)
     811                            .dwattr $C$DW$50, DW_AT_location[DW_OP_regx 0x40]
     812                    
     813                    
     814                    ;*****************************************************************************
     815                    ;* FUNCTION NAME: __isnormall                                                *
     816                    ;*                                                                           *
     817                    ;*   Regs Modified     : A1,A2,A3,A4,V1,V2,SP,SR                             *
     818                    ;*   Regs Used         : A1,A2,A3,A4,V1,V2,SP,LR,SR,D0,D0_hi                 *
     819                    ;*   Local Frame Size  : 0 Args + 0 Auto + 12 Save = 12 byte                 *
     820                    ;*****************************************************************************
     821 00000000           __isnormall:
     822                    ;* --------------------------------------------------------------------------*
     823                    ;* A3    assigned to $O$K3
     824                    ;* A1    assigned to $O$S1
     825                            .dwcfi  cfa_offset, 0
TI ARM Assembler PC v20.2.5 Mon Nov 29 14:33:27 2021

Copyright (c) 1996-2018 Texas Instruments Incorporated
C:\Users\PSCHAU~1\AppData\Local\Temp\{DCC34CBA-9535-4573-905C-F9C061991809} PAGE   16

     826 00000000 B538              PUSH      {A4, V1, V2, LR}      ; [DPU_V7M3_PIPE]  ; [ORIG 16-BIT INS]
     827                            .dwcfi  cfa_offset, 16
     828                            .dwcfi  save_reg_to_mem, 14, -4
     829                            .dwcfi  save_reg_to_mem, 5, -8
     830                            .dwcfi  save_reg_to_mem, 4, -12
     831                            .dwcfi  save_reg_to_mem, 3, -16
     832                            .dwpsn  file "C:/ti/ccs1040/ccs/tools/compiler/ti-cgt-arm_20.2.5.LTS/include/_defs.h",line 360
     833 00000002 2300              MOVS      A4, #0                ; [DPU_V7M3_PIPE] |360|  ; [ORIG 16-BIT INS]
     834                            .dwpsn  file "C:/ti/ccs1040/ccs/tools/compiler/ti-cgt-arm_20.2.5.LTS/include/_defs.h",line 360
     835 00000004 1B10EC52          VMOV      A2,A3, D0             ; [DPU_MERLIN_PIPE] |360|  ; [KEEP 32-BIT INS]
     836                            .dwpsn  file "C:/ti/ccs1040/ccs/tools/compiler/ti-cgt-arm_20.2.5.LTS/include/_defs.h",line 360
     837 00000008 2000              MOVS      A1, #0                ; [DPU_V7M3_PIPE] |360|  ; [ORIG 16-BIT INS]
     838 0000000a 031C              LSLS      V1, A4, #12           ; [DPU_V7M3_PIPE] |360|  ; [ORIG 16-BIT INS]
     839 0000000c 151D              ASRS      V2, A4, #20           ; [DPU_V7M3_PIPE] |360|  ; [ORIG 16-BIT INS]
     840 0000000e 0D11              LSRS      A2, A3, #20           ; [DPU_V7M3_PIPE] |360|  ; [ORIG 16-BIT INS]
     841 00000010 73FFF240          MOVW      A4, #2047             ; [DPU_V7M3_PIPE] |360|  ; [KEEP 32-BIT INS]
     842 00000014 0300F2C0          MOVT      A4, #0                ; [DPU_V7M3_PIPE] |360|  ; [KEEP 32-BIT INS]
     843 00000018 430C              ORRS      V1, A2, V1            ; [DPU_V7M3_PIPE] |360|  ; [ORIG 16-BIT INS]
     844 0000001a 4023              ANDS      A4, A4, V1            ; [DPU_V7M3_PIPE] |360|  ; [ORIG 16-BIT INS]
     845 0000001c 0105EA10          ANDS      A2, A1, V2            ; [DPU_V7M3_PIPE] |360|  ; [KEEP 32-BIT INS]
     846 00000020 BF08              IT        EQ                    ; [DPU_V7M3_PIPE]  ; [ORIG 16-BIT INS]
     847 00000022 2B00              CMPEQ     A4, #0                ; [DPU_V7M3_PIPE] |360|  ; [ORIG 16-BIT INS]
     848 00000024 D006              BEQ       ||$C$L1||             ; [DPU_V7M3_PIPE] |360|  ; [ORIG 16-BIT INS]
     849                            ; BRANCHCC OCCURS {||$C$L1||}    ; [] |360| 
     850                    ;* --------------------------------------------------------------------------*
     851 00000026 71F0F647          MOV       A2, #32752            ; [DPU_V7M3_PIPE] |360|  ; [KEEP 32-BIT INS]
     852 0000002a 4212EA01          AND       A3, A2, A3, LSR #16   ; [DPU_V7M3_PIPE] |360|  ; [KEEP 32-BIT INS]
     853 0000002e 4291              CMP       A2, A3                ; [DPU_V7M3_PIPE] |360|  ; [ORIG 16-BIT INS]
     854 00000030 BF18              IT        NE                    ; [DPU_V7M3_PIPE]  ; [ORIG 16-BIT INS]
     855 00000032 2001              MOVNE     A1, #1                ; [DPU_V7M3_PIPE] |360|  ; [ORIG 16-BIT INS]
     856                    ;* --------------------------------------------------------------------------*
     857                    ||$C$L1||:    
     858                    $C$DW$51        .dwtag  DW_TAG_TI_branch
     859                            .dwattr $C$DW$51, DW_AT_low_pc(0x00)
     860                            .dwattr $C$DW$51, DW_AT_TI_return
     861                    
     862 00000034 BD38              POP       {A4, V1, V2, PC}      ; [DPU_V7M3_PIPE]  ; [ORIG 16-BIT INS]
     863                            .dwcfi  cfa_offset, 0
     864                            .dwcfi  restore_reg, 5
     865                            .dwcfi  restore_reg, 4
     866                            .dwcfi  restore_reg, 3
     867                            ; BRANCH OCCURS                  ; [] 
     868                            .dwattr $C$DW$49, DW_AT_TI_end_file("C:/ti/ccs1040/ccs/tools/compiler/ti-cgt-arm_20.2.5.LTS/in
     869                            .dwattr $C$DW$49, DW_AT_TI_end_line(0x169)
     870                            .dwattr $C$DW$49, DW_AT_TI_end_column(0x31)
     871                            .dwendentry
     872                            .dwendtag $C$DW$49
     873                    
     874 00000000                   .sect   ".text:__isnormalf"
     875                            .align  8
     876                            .clink
     877                            .thumbfunc __isnormalf
     878 00000000                   .thumb
     879                            .global __isnormalf
     880                    
TI ARM Assembler PC v20.2.5 Mon Nov 29 14:33:27 2021

Copyright (c) 1996-2018 Texas Instruments Incorporated
C:\Users\PSCHAU~1\AppData\Local\Temp\{DCC34CBA-9535-4573-905C-F9C061991809} PAGE   17

     881                    $C$DW$52        .dwtag  DW_TAG_subprogram
     882                            .dwattr $C$DW$52, DW_AT_name("__isnormalf")
     883                            .dwattr $C$DW$52, DW_AT_low_pc(__isnormalf)
     884                            .dwattr $C$DW$52, DW_AT_high_pc(0x00)
     885                            .dwattr $C$DW$52, DW_AT_TI_symbol_name("__isnormalf")
     886                            .dwattr $C$DW$52, DW_AT_external
     887                            .dwattr $C$DW$52, DW_AT_type(*$C$DW$T$10)
     888                            .dwattr $C$DW$52, DW_AT_TI_begin_file("C:/ti/ccs1040/ccs/tools/compiler/ti-cgt-arm_20.2.5.LTS/
     889                            .dwattr $C$DW$52, DW_AT_TI_begin_line(0x163)
     890                            .dwattr $C$DW$52, DW_AT_TI_begin_column(0x25)
     891                            .dwattr $C$DW$52, DW_AT_decl_file("C:/ti/ccs1040/ccs/tools/compiler/ti-cgt-arm_20.2.5.LTS/incl
     892                            .dwattr $C$DW$52, DW_AT_decl_line(0x163)
     893                            .dwattr $C$DW$52, DW_AT_decl_column(0x25)
     894                            .dwattr $C$DW$52, DW_AT_TI_max_frame_size(0x00)
     895                            .dwpsn  file "C:/ti/ccs1040/ccs/tools/compiler/ti-cgt-arm_20.2.5.LTS/include/_defs.h",line 356
     896                    
     897                            .dwfde $C$DW$CIE, __isnormalf
     898                    $C$DW$53        .dwtag  DW_TAG_formal_parameter
     899                            .dwattr $C$DW$53, DW_AT_name("f")
     900                            .dwattr $C$DW$53, DW_AT_TI_symbol_name("f")
     901                            .dwattr $C$DW$53, DW_AT_type(*$C$DW$T$16)
     902                            .dwattr $C$DW$53, DW_AT_location[DW_OP_regx 0x40]
     903                    
     904                    
     905                    ;*****************************************************************************
     906                    ;* FUNCTION NAME: __isnormalf                                                *
     907                    ;*                                                                           *
     908                    ;*   Regs Modified     : A1,A2,A3,SR                                         *
     909                    ;*   Regs Used         : A1,A2,A3,LR,SR,D0                                   *
     910                    ;*   Local Frame Size  : 0 Args + 0 Auto + 0 Save = 0 byte                   *
     911                    ;*****************************************************************************
     912                    __isnormalf:
     913                    ;* --------------------------------------------------------------------------*
     914                    ;* A3    assigned to $O$K3
     915                    ;* A1    assigned to $O$S1
     916                    ;* D0    assigned to f
     917                    $C$DW$54        .dwtag  DW_TAG_variable
     918                            .dwattr $C$DW$54, DW_AT_name("f")
     919                            .dwattr $C$DW$54, DW_AT_TI_symbol_name("f")
     920                            .dwattr $C$DW$54, DW_AT_type(*$C$DW$T$578)
     921                            .dwattr $C$DW$54, DW_AT_location[DW_OP_regx 0x40]
     922                    
     923                            .dwcfi  cfa_offset, 0
     924                            .dwpsn  file "C:/ti/ccs1040/ccs/tools/compiler/ti-cgt-arm_20.2.5.LTS/include/_defs.h",line 356
     925 00000000 2A10EE10          VMOV      A3, S0                ; [DPU_MERLIN_PIPE] |356|  ; [KEEP 32-BIT INS]
     926 00000004 2000              MOVS      A1, #0                ; [DPU_V7M3_PIPE] |356|  ; [ORIG 16-BIT INS]
     927 00000006 51C7F3C2          UBFX      A2, A3, #23, #8       ; [DPU_V7M3_PIPE] |356|  ; [KEEP 32-BIT INS]
     928 0000000a B131              CBZ       A2, ||$C$L2||         ; []  ; [ORIG 16-BIT INS]
     929                            ; BRANCHCC OCCURS {||$C$L2||}    ; [] |356| 
     930                    ;* --------------------------------------------------------------------------*
     931 0000000c 0C11              LSRS      A2, A3, #16           ; [DPU_V7M3_PIPE] |356|  ; [ORIG 16-BIT INS]
     932 0000000e 41FFF401          AND       A2, A2, #32640        ; [DPU_V7M3_PIPE] |356|  ; [KEEP 32-BIT INS]
     933 00000012 4FFFF5B1          CMP       A2, #32640            ; [DPU_V7M3_PIPE] |356|  ; [KEEP 32-BIT INS]
     934 00000016 BF18              IT        NE                    ; [DPU_V7M3_PIPE]  ; [ORIG 16-BIT INS]
     935 00000018 2001              MOVNE     A1, #1                ; [DPU_V7M3_PIPE] |356|  ; [ORIG 16-BIT INS]
TI ARM Assembler PC v20.2.5 Mon Nov 29 14:33:27 2021

Copyright (c) 1996-2018 Texas Instruments Incorporated
C:\Users\PSCHAU~1\AppData\Local\Temp\{DCC34CBA-9535-4573-905C-F9C061991809} PAGE   18

     936                    ;* --------------------------------------------------------------------------*
     937                    ||$C$L2||:    
     938                    $C$DW$55        .dwtag  DW_TAG_TI_branch
     939                            .dwattr $C$DW$55, DW_AT_low_pc(0x00)
     940                            .dwattr $C$DW$55, DW_AT_TI_return
     941                    
     942 0000001a 4770              BX        LR                    ; [DPU_V7M3_PIPE]  ; [ORIG 16-BIT INS]
     943                            ; BRANCH OCCURS                  ; [] 
     944                            .dwattr $C$DW$52, DW_AT_TI_end_file("C:/ti/ccs1040/ccs/tools/compiler/ti-cgt-arm_20.2.5.LTS/in
     945                            .dwattr $C$DW$52, DW_AT_TI_end_line(0x165)
     946                            .dwattr $C$DW$52, DW_AT_TI_end_column(0x2f)
     947                            .dwendentry
     948                            .dwendtag $C$DW$52
     949                    
     950 00000000                   .sect   ".text:__isnormal"
     951                            .align  8
     952                            .clink
     953                            .thumbfunc __isnormal
     954 00000000                   .thumb
     955                            .global __isnormal
     956                    
     957                    $C$DW$56        .dwtag  DW_TAG_subprogram
     958                            .dwattr $C$DW$56, DW_AT_name("__isnormal")
     959                            .dwattr $C$DW$56, DW_AT_low_pc(__isnormal)
     960                            .dwattr $C$DW$56, DW_AT_high_pc(0x00)
     961                            .dwattr $C$DW$56, DW_AT_TI_symbol_name("__isnormal")
     962                            .dwattr $C$DW$56, DW_AT_external
     963                            .dwattr $C$DW$56, DW_AT_type(*$C$DW$T$10)
     964                            .dwattr $C$DW$56, DW_AT_TI_begin_file("C:/ti/ccs1040/ccs/tools/compiler/ti-cgt-arm_20.2.5.LTS/
     965                            .dwattr $C$DW$56, DW_AT_TI_begin_line(0x15f)
     966                            .dwattr $C$DW$56, DW_AT_TI_begin_column(0x25)
     967                            .dwattr $C$DW$56, DW_AT_decl_file("C:/ti/ccs1040/ccs/tools/compiler/ti-cgt-arm_20.2.5.LTS/incl
     968                            .dwattr $C$DW$56, DW_AT_decl_line(0x15f)
     969                            .dwattr $C$DW$56, DW_AT_decl_column(0x25)
     970                            .dwattr $C$DW$56, DW_AT_TI_max_frame_size(0x10)
     971                            .dwpsn  file "C:/ti/ccs1040/ccs/tools/compiler/ti-cgt-arm_20.2.5.LTS/include/_defs.h",line 352
     972                    
     973                            .dwfde $C$DW$CIE, __isnormal
     974                    $C$DW$57        .dwtag  DW_TAG_formal_parameter
     975                            .dwattr $C$DW$57, DW_AT_name("d")
     976                            .dwattr $C$DW$57, DW_AT_TI_symbol_name("d")
     977                            .dwattr $C$DW$57, DW_AT_type(*$C$DW$T$17)
     978                            .dwattr $C$DW$57, DW_AT_location[DW_OP_regx 0x40]
     979                    
     980                    
     981                    ;*****************************************************************************
     982                    ;* FUNCTION NAME: __isnormal                                                 *
     983                    ;*                                                                           *
     984                    ;*   Regs Modified     : A1,A2,A3,A4,V1,V2,SP,SR                             *
     985                    ;*   Regs Used         : A1,A2,A3,A4,V1,V2,SP,LR,SR,D0,D0_hi                 *
     986                    ;*   Local Frame Size  : 0 Args + 0 Auto + 12 Save = 12 byte                 *
     987                    ;*****************************************************************************
     988 00000000           __isnormal:
     989                    ;* --------------------------------------------------------------------------*
     990                    ;* A3    assigned to $O$K3
TI ARM Assembler PC v20.2.5 Mon Nov 29 14:33:27 2021

Copyright (c) 1996-2018 Texas Instruments Incorporated
C:\Users\PSCHAU~1\AppData\Local\Temp\{DCC34CBA-9535-4573-905C-F9C061991809} PAGE   19

     991                    ;* A1    assigned to $O$S1
     992                            .dwcfi  cfa_offset, 0
     993 00000000 B538              PUSH      {A4, V1, V2, LR}      ; [DPU_V7M3_PIPE]  ; [ORIG 16-BIT INS]
     994                            .dwcfi  cfa_offset, 16
     995                            .dwcfi  save_reg_to_mem, 14, -4
     996                            .dwcfi  save_reg_to_mem, 5, -8
     997                            .dwcfi  save_reg_to_mem, 4, -12
     998                            .dwcfi  save_reg_to_mem, 3, -16
     999                            .dwpsn  file "C:/ti/ccs1040/ccs/tools/compiler/ti-cgt-arm_20.2.5.LTS/include/_defs.h",line 352
    1000 00000002 2300              MOVS      A4, #0                ; [DPU_V7M3_PIPE] |352|  ; [ORIG 16-BIT INS]
    1001                            .dwpsn  file "C:/ti/ccs1040/ccs/tools/compiler/ti-cgt-arm_20.2.5.LTS/include/_defs.h",line 352
    1002 00000004 1B10EC52          VMOV      A2,A3, D0             ; [DPU_MERLIN_PIPE] |352|  ; [KEEP 32-BIT INS]
    1003                            .dwpsn  file "C:/ti/ccs1040/ccs/tools/compiler/ti-cgt-arm_20.2.5.LTS/include/_defs.h",line 352
    1004 00000008 2000              MOVS      A1, #0                ; [DPU_V7M3_PIPE] |352|  ; [ORIG 16-BIT INS]
    1005 0000000a 031C              LSLS      V1, A4, #12           ; [DPU_V7M3_PIPE] |352|  ; [ORIG 16-BIT INS]
    1006 0000000c 151D              ASRS      V2, A4, #20           ; [DPU_V7M3_PIPE] |352|  ; [ORIG 16-BIT INS]
    1007 0000000e 0D11              LSRS      A2, A3, #20           ; [DPU_V7M3_PIPE] |352|  ; [ORIG 16-BIT INS]
    1008 00000010 73FFF240          MOVW      A4, #2047             ; [DPU_V7M3_PIPE] |352|  ; [KEEP 32-BIT INS]
    1009 00000014 0300F2C0          MOVT      A4, #0                ; [DPU_V7M3_PIPE] |352|  ; [KEEP 32-BIT INS]
    1010 00000018 430C              ORRS      V1, A2, V1            ; [DPU_V7M3_PIPE] |352|  ; [ORIG 16-BIT INS]
    1011 0000001a 4023              ANDS      A4, A4, V1            ; [DPU_V7M3_PIPE] |352|  ; [ORIG 16-BIT INS]
    1012 0000001c 0105EA10          ANDS      A2, A1, V2            ; [DPU_V7M3_PIPE] |352|  ; [KEEP 32-BIT INS]
    1013 00000020 BF08              IT        EQ                    ; [DPU_V7M3_PIPE]  ; [ORIG 16-BIT INS]
    1014 00000022 2B00              CMPEQ     A4, #0                ; [DPU_V7M3_PIPE] |352|  ; [ORIG 16-BIT INS]
    1015 00000024 D006              BEQ       ||$C$L3||             ; [DPU_V7M3_PIPE] |352|  ; [ORIG 16-BIT INS]
    1016                            ; BRANCHCC OCCURS {||$C$L3||}    ; [] |352| 
    1017                    ;* --------------------------------------------------------------------------*
    1018 00000026 71F0F647          MOV       A2, #32752            ; [DPU_V7M3_PIPE] |352|  ; [KEEP 32-BIT INS]
    1019 0000002a 4212EA01          AND       A3, A2, A3, LSR #16   ; [DPU_V7M3_PIPE] |352|  ; [KEEP 32-BIT INS]
    1020 0000002e 4291              CMP       A2, A3                ; [DPU_V7M3_PIPE] |352|  ; [ORIG 16-BIT INS]
    1021 00000030 BF18              IT        NE                    ; [DPU_V7M3_PIPE]  ; [ORIG 16-BIT INS]
    1022 00000032 2001              MOVNE     A1, #1                ; [DPU_V7M3_PIPE] |352|  ; [ORIG 16-BIT INS]
    1023                    ;* --------------------------------------------------------------------------*
    1024                    ||$C$L3||:    
    1025                    $C$DW$58        .dwtag  DW_TAG_TI_branch
    1026                            .dwattr $C$DW$58, DW_AT_low_pc(0x00)
    1027                            .dwattr $C$DW$58, DW_AT_TI_return
    1028                    
    1029 00000034 BD38              POP       {A4, V1, V2, PC}      ; [DPU_V7M3_PIPE]  ; [ORIG 16-BIT INS]
    1030                            .dwcfi  cfa_offset, 0
    1031                            .dwcfi  restore_reg, 5
    1032                            .dwcfi  restore_reg, 4
    1033                            .dwcfi  restore_reg, 3
    1034                            ; BRANCH OCCURS                  ; [] 
    1035                            .dwattr $C$DW$56, DW_AT_TI_end_file("C:/ti/ccs1040/ccs/tools/compiler/ti-cgt-arm_20.2.5.LTS/in
    1036                            .dwattr $C$DW$56, DW_AT_TI_end_line(0x161)
    1037                            .dwattr $C$DW$56, DW_AT_TI_end_column(0x30)
    1038                            .dwendentry
    1039                            .dwendtag $C$DW$56
    1040                    
    1041 00000000                   .sect   ".text:__isnanl"
    1042                            .align  8
    1043                            .clink
    1044                            .thumbfunc __isnanl
    1045 00000000                   .thumb
TI ARM Assembler PC v20.2.5 Mon Nov 29 14:33:27 2021

Copyright (c) 1996-2018 Texas Instruments Incorporated
C:\Users\PSCHAU~1\AppData\Local\Temp\{DCC34CBA-9535-4573-905C-F9C061991809} PAGE   20

    1046                            .global __isnanl
    1047                    
    1048                    $C$DW$59        .dwtag  DW_TAG_subprogram
    1049                            .dwattr $C$DW$59, DW_AT_name("__isnanl")
    1050                            .dwattr $C$DW$59, DW_AT_low_pc(__isnanl)
    1051                            .dwattr $C$DW$59, DW_AT_high_pc(0x00)
    1052                            .dwattr $C$DW$59, DW_AT_TI_symbol_name("__isnanl")
    1053                            .dwattr $C$DW$59, DW_AT_external
    1054                            .dwattr $C$DW$59, DW_AT_type(*$C$DW$T$10)
    1055                            .dwattr $C$DW$59, DW_AT_TI_begin_file("C:/ti/ccs1040/ccs/tools/compiler/ti-cgt-arm_20.2.5.LTS/
    1056                            .dwattr $C$DW$59, DW_AT_TI_begin_line(0x15b)
    1057                            .dwattr $C$DW$59, DW_AT_TI_begin_column(0x25)
    1058                            .dwattr $C$DW$59, DW_AT_decl_file("C:/ti/ccs1040/ccs/tools/compiler/ti-cgt-arm_20.2.5.LTS/incl
    1059                            .dwattr $C$DW$59, DW_AT_decl_line(0x15b)
    1060                            .dwattr $C$DW$59, DW_AT_decl_column(0x25)
    1061                            .dwattr $C$DW$59, DW_AT_TI_max_frame_size(0x18)
    1062                            .dwpsn  file "C:/ti/ccs1040/ccs/tools/compiler/ti-cgt-arm_20.2.5.LTS/include/_defs.h",line 348
    1063                    
    1064                            .dwfde $C$DW$CIE, __isnanl
    1065                    $C$DW$60        .dwtag  DW_TAG_formal_parameter
    1066                            .dwattr $C$DW$60, DW_AT_name("e")
    1067                            .dwattr $C$DW$60, DW_AT_TI_symbol_name("e")
    1068                            .dwattr $C$DW$60, DW_AT_type(*$C$DW$T$18)
    1069                            .dwattr $C$DW$60, DW_AT_location[DW_OP_regx 0x40]
    1070                    
    1071                    
    1072                    ;*****************************************************************************
    1073                    ;* FUNCTION NAME: __isnanl                                                   *
    1074                    ;*                                                                           *
    1075                    ;*   Regs Modified     : A1,A2,A3,A4,V1,V4,V5,V6,V9,SP,LR,SR                 *
    1076                    ;*   Regs Used         : A1,A2,A3,A4,V1,V4,V5,V6,V9,SP,LR,SR,D0,D0_hi        *
    1077                    ;*   Local Frame Size  : 0 Args + 0 Auto + 20 Save = 20 byte                 *
    1078                    ;*****************************************************************************
    1079                    __isnanl:
    1080                    ;* --------------------------------------------------------------------------*
    1081                    ;* A3    assigned to $O$K3
    1082                    ;* A1    assigned to $O$S1
    1083                    ;* A2    assigned to e
    1084                    $C$DW$61        .dwtag  DW_TAG_variable
    1085                            .dwattr $C$DW$61, DW_AT_name("e")
    1086                            .dwattr $C$DW$61, DW_AT_TI_symbol_name("e")
    1087                            .dwattr $C$DW$61, DW_AT_type(*$C$DW$T$587)
    1088                            .dwattr $C$DW$61, DW_AT_location[DW_OP_reg1 DW_OP_piece 4 DW_OP_reg9 DW_OP_piece 4]
    1089                    
    1090                            .dwcfi  cfa_offset, 0
    1091 00000000 4398E92D          PUSH      {A4, V1, V4, V5, V6, LR} ; [DPU_V7M3_PIPE]  ; [KEEP 32-BIT INS]
    1092                            .dwcfi  cfa_offset, 24
    1093                            .dwcfi  save_reg_to_mem, 14, -4
    1094                            .dwcfi  save_reg_to_mem, 9, -8
    1095                            .dwcfi  save_reg_to_mem, 8, -12
    1096                            .dwcfi  save_reg_to_mem, 7, -16
    1097                            .dwcfi  save_reg_to_mem, 4, -20
    1098                            .dwcfi  save_reg_to_mem, 3, -24
    1099 00000004 1B10EC52          VMOV      A2,A3, D0             ; [DPU_MERLIN_PIPE] |348|  ; [KEEP 32-BIT INS]
    1100                            .dwpsn  file "C:/ti/ccs1040/ccs/tools/compiler/ti-cgt-arm_20.2.5.LTS/include/_defs.h",line 348
TI ARM Assembler PC v20.2.5 Mon Nov 29 14:33:27 2021

Copyright (c) 1996-2018 Texas Instruments Incorporated
C:\Users\PSCHAU~1\AppData\Local\Temp\{DCC34CBA-9535-4573-905C-F9C061991809} PAGE   21

    1101 00000008 74F0F647          MOV       V1, #32752            ; [DPU_V7M3_PIPE] |348|  ; [KEEP 32-BIT INS]
    1102 0000000c 2000              MOVS      A1, #0                ; [DPU_V7M3_PIPE] |348|  ; [ORIG 16-BIT INS]
    1103 0000000e 4312EA04          AND       A4, V1, A3, LSR #16   ; [DPU_V7M3_PIPE] |348|  ; [KEEP 32-BIT INS]
    1104 00000012 429C              CMP       V1, A4                ; [DPU_V7M3_PIPE] |348|  ; [ORIG 16-BIT INS]
    1105 00000014 D115              BNE       ||$C$L4||             ; [DPU_V7M3_PIPE] |348|  ; [ORIG 16-BIT INS]
    1106                            ; BRANCHCC OCCURS {||$C$L4||}    ; [] |348| 
    1107                    ;* --------------------------------------------------------------------------*
    1108 00000016 77FFF64F          MOVW      V4, #65535            ; [DPU_V7M3_PIPE] |348|  ; [KEEP 32-BIT INS]
    1109 0000001a 0800F04F          MOV       V5, #0                ; [DPU_V7M3_PIPE] |348|  ; [KEEP 32-BIT INS]
    1110 0000001e 0012              LSLS      A3, A3, #0            ; [DPU_V7M3_PIPE] |348|  ; [ORIG 16-BIT INS]
    1111 00000020 468E              MOV       LR, A2                ; [DPU_V7M3_PIPE] |348|  ; [ORIG 16-BIT INS]
    1112 00000022 39FFF04F          MOV       V6, #-1               ; [DPU_V7M3_PIPE] |348|  ; [KEEP 32-BIT INS]
    1113 00000026 070FF2C0          MOVT      V4, #15               ; [DPU_V7M3_PIPE] |348|  ; [KEEP 32-BIT INS]
    1114 0000002a 0C02EA48          ORR       V9, V5, A3            ; [DPU_V7M3_PIPE] |348|  ; [KEEP 32-BIT INS]
    1115 0000002e 0108EA4E          ORR       A2, LR, V5            ; [DPU_V7M3_PIPE] |348|  ; [KEEP 32-BIT INS]
    1116 00000032 070CEA17          ANDS      V4, V4, V9            ; [DPU_V7M3_PIPE] |348|  ; [KEEP 32-BIT INS]
    1117 00000036 0901EA09          AND       V6, V6, A2            ; [DPU_V7M3_PIPE] |348|  ; [KEEP 32-BIT INS]
    1118 0000003a BF0C              ITE       EQ                    ; [DPU_V7M3_PIPE]  ; [ORIG 16-BIT INS]
    1119 0000003c 0F00F1B9          CMPEQ     V6, #0                ; [DPU_V7M3_PIPE] |348|  ; [KEEP 32-BIT INS]
    1120 00000040 2001              MOVNE     A1, #1                ; [DPU_V7M3_PIPE] |348|  ; [ORIG 16-BIT INS]
    1121                    ;* --------------------------------------------------------------------------*
    1122                    ||$C$L4||:    
    1123                    $C$DW$62        .dwtag  DW_TAG_TI_branch
    1124                            .dwattr $C$DW$62, DW_AT_low_pc(0x00)
    1125                            .dwattr $C$DW$62, DW_AT_TI_return
    1126                    
    1127 00000042 8398E8BD          POP       {A4, V1, V4, V5, V6, PC} ; [DPU_V7M3_PIPE]  ; [KEEP 32-BIT INS]
    1128                            .dwcfi  cfa_offset, 0
    1129                            .dwcfi  restore_reg, 9
    1130                            .dwcfi  restore_reg, 8
    1131                            .dwcfi  restore_reg, 7
    1132                            .dwcfi  restore_reg, 4
    1133                            .dwcfi  restore_reg, 3
    1134                            ; BRANCH OCCURS                  ; [] 
    1135                            .dwattr $C$DW$59, DW_AT_TI_end_file("C:/ti/ccs1040/ccs/tools/compiler/ti-cgt-arm_20.2.5.LTS/in
    1136                            .dwattr $C$DW$59, DW_AT_TI_end_line(0x15d)
    1137                            .dwattr $C$DW$59, DW_AT_TI_end_column(0x30)
    1138                            .dwendentry
    1139                            .dwendtag $C$DW$59
    1140                    
    1141 00000000                   .sect   ".text:__isnanf"
    1142                            .align  8
    1143                            .clink
    1144                            .thumbfunc __isnanf
    1145 00000000                   .thumb
    1146                            .global __isnanf
    1147                    
    1148                    $C$DW$63        .dwtag  DW_TAG_subprogram
    1149                            .dwattr $C$DW$63, DW_AT_name("__isnanf")
    1150                            .dwattr $C$DW$63, DW_AT_low_pc(__isnanf)
    1151                            .dwattr $C$DW$63, DW_AT_high_pc(0x00)
    1152                            .dwattr $C$DW$63, DW_AT_TI_symbol_name("__isnanf")
    1153                            .dwattr $C$DW$63, DW_AT_external
    1154                            .dwattr $C$DW$63, DW_AT_type(*$C$DW$T$10)
    1155                            .dwattr $C$DW$63, DW_AT_TI_begin_file("C:/ti/ccs1040/ccs/tools/compiler/ti-cgt-arm_20.2.5.LTS/
TI ARM Assembler PC v20.2.5 Mon Nov 29 14:33:27 2021

Copyright (c) 1996-2018 Texas Instruments Incorporated
C:\Users\PSCHAU~1\AppData\Local\Temp\{DCC34CBA-9535-4573-905C-F9C061991809} PAGE   22

    1156                            .dwattr $C$DW$63, DW_AT_TI_begin_line(0x158)
    1157                            .dwattr $C$DW$63, DW_AT_TI_begin_column(0x25)
    1158                            .dwattr $C$DW$63, DW_AT_decl_file("C:/ti/ccs1040/ccs/tools/compiler/ti-cgt-arm_20.2.5.LTS/incl
    1159                            .dwattr $C$DW$63, DW_AT_decl_line(0x158)
    1160                            .dwattr $C$DW$63, DW_AT_decl_column(0x25)
    1161                            .dwattr $C$DW$63, DW_AT_TI_max_frame_size(0x00)
    1162                            .dwpsn  file "C:/ti/ccs1040/ccs/tools/compiler/ti-cgt-arm_20.2.5.LTS/include/_defs.h",line 345
    1163                    
    1164                            .dwfde $C$DW$CIE, __isnanf
    1165                    $C$DW$64        .dwtag  DW_TAG_formal_parameter
    1166                            .dwattr $C$DW$64, DW_AT_name("f")
    1167                            .dwattr $C$DW$64, DW_AT_TI_symbol_name("f")
    1168                            .dwattr $C$DW$64, DW_AT_type(*$C$DW$T$16)
    1169                            .dwattr $C$DW$64, DW_AT_location[DW_OP_regx 0x40]
    1170                    
    1171                    
    1172                    ;*****************************************************************************
    1173                    ;* FUNCTION NAME: __isnanf                                                   *
    1174                    ;*                                                                           *
    1175                    ;*   Regs Modified     : A1,A2,A3,SR                                         *
    1176                    ;*   Regs Used         : A1,A2,A3,LR,SR,D0                                   *
    1177                    ;*   Local Frame Size  : 0 Args + 0 Auto + 0 Save = 0 byte                   *
    1178                    ;*****************************************************************************
    1179                    __isnanf:
    1180                    ;* --------------------------------------------------------------------------*
    1181                    ;* A2    assigned to $O$K3
    1182                    ;* A1    assigned to $O$S1
    1183                    ;* D0    assigned to f
    1184                    $C$DW$65        .dwtag  DW_TAG_variable
    1185                            .dwattr $C$DW$65, DW_AT_name("f")
    1186                            .dwattr $C$DW$65, DW_AT_TI_symbol_name("f")
    1187                            .dwattr $C$DW$65, DW_AT_type(*$C$DW$T$578)
    1188                            .dwattr $C$DW$65, DW_AT_location[DW_OP_regx 0x40]
    1189                    
    1190                            .dwcfi  cfa_offset, 0
    1191                            .dwpsn  file "C:/ti/ccs1040/ccs/tools/compiler/ti-cgt-arm_20.2.5.LTS/include/_defs.h",line 345
    1192 00000000 1A10EE10          VMOV      A2, S0                ; [DPU_MERLIN_PIPE] |345|  ; [KEEP 32-BIT INS]
    1193 00000004 0C0A              LSRS      A3, A2, #16           ; [DPU_V7M3_PIPE] |345|  ; [ORIG 16-BIT INS]
    1194 00000006 2000              MOVS      A1, #0                ; [DPU_V7M3_PIPE] |345|  ; [ORIG 16-BIT INS]
    1195 00000008 42FFF402          AND       A3, A3, #32640        ; [DPU_V7M3_PIPE] |345|  ; [KEEP 32-BIT INS]
    1196 0000000c 4FFFF5B2          CMP       A3, #32640            ; [DPU_V7M3_PIPE] |345|  ; [KEEP 32-BIT INS]
    1197 00000010 D106              BNE       ||$C$L5||             ; [DPU_V7M3_PIPE] |345|  ; [ORIG 16-BIT INS]
    1198                            ; BRANCHCC OCCURS {||$C$L5||}    ; [] |345| 
    1199                    ;* --------------------------------------------------------------------------*
    1200 00000012 72FFF64F          MOVW      A3, #65535            ; [DPU_V7M3_PIPE] |345|  ; [KEEP 32-BIT INS]
    1201 00000016 027FF2C0          MOVT      A3, #127              ; [DPU_V7M3_PIPE] |345|  ; [KEEP 32-BIT INS]
    1202 0000001a 420A              TST       A3, A2                ; [DPU_V7M3_PIPE] |345|  ; [ORIG 16-BIT INS]
    1203 0000001c BF18              IT        NE                    ; [DPU_V7M3_PIPE]  ; [ORIG 16-BIT INS]
    1204 0000001e 2001              MOVNE     A1, #1                ; [DPU_V7M3_PIPE] |345|  ; [ORIG 16-BIT INS]
    1205                    ;* --------------------------------------------------------------------------*
    1206                    ||$C$L5||:    
    1207                    $C$DW$66        .dwtag  DW_TAG_TI_branch
    1208                            .dwattr $C$DW$66, DW_AT_low_pc(0x00)
    1209                            .dwattr $C$DW$66, DW_AT_TI_return
    1210                    
TI ARM Assembler PC v20.2.5 Mon Nov 29 14:33:27 2021

Copyright (c) 1996-2018 Texas Instruments Incorporated
C:\Users\PSCHAU~1\AppData\Local\Temp\{DCC34CBA-9535-4573-905C-F9C061991809} PAGE   23

    1211 00000020 4770              BX        LR                    ; [DPU_V7M3_PIPE]  ; [ORIG 16-BIT INS]
    1212                            ; BRANCH OCCURS                  ; [] 
    1213                            .dwattr $C$DW$63, DW_AT_TI_end_file("C:/ti/ccs1040/ccs/tools/compiler/ti-cgt-arm_20.2.5.LTS/in
    1214                            .dwattr $C$DW$63, DW_AT_TI_end_line(0x15a)
    1215                            .dwattr $C$DW$63, DW_AT_TI_end_column(0x2e)
    1216                            .dwendentry
    1217                            .dwendtag $C$DW$63
    1218                    
    1219 00000000                   .sect   ".text:__isnan"
    1220                            .align  8
    1221                            .clink
    1222                            .thumbfunc __isnan
    1223 00000000                   .thumb
    1224                            .global __isnan
    1225                    
    1226                    $C$DW$67        .dwtag  DW_TAG_subprogram
    1227                            .dwattr $C$DW$67, DW_AT_name("__isnan")
    1228                            .dwattr $C$DW$67, DW_AT_low_pc(__isnan)
    1229                            .dwattr $C$DW$67, DW_AT_high_pc(0x00)
    1230                            .dwattr $C$DW$67, DW_AT_TI_symbol_name("__isnan")
    1231                            .dwattr $C$DW$67, DW_AT_external
    1232                            .dwattr $C$DW$67, DW_AT_type(*$C$DW$T$10)
    1233                            .dwattr $C$DW$67, DW_AT_TI_begin_file("C:/ti/ccs1040/ccs/tools/compiler/ti-cgt-arm_20.2.5.LTS/
    1234                            .dwattr $C$DW$67, DW_AT_TI_begin_line(0x155)
    1235                            .dwattr $C$DW$67, DW_AT_TI_begin_column(0x25)
    1236                            .dwattr $C$DW$67, DW_AT_decl_file("C:/ti/ccs1040/ccs/tools/compiler/ti-cgt-arm_20.2.5.LTS/incl
    1237                            .dwattr $C$DW$67, DW_AT_decl_line(0x155)
    1238                            .dwattr $C$DW$67, DW_AT_decl_column(0x25)
    1239                            .dwattr $C$DW$67, DW_AT_TI_max_frame_size(0x18)
    1240                            .dwpsn  file "C:/ti/ccs1040/ccs/tools/compiler/ti-cgt-arm_20.2.5.LTS/include/_defs.h",line 342
    1241                    
    1242                            .dwfde $C$DW$CIE, __isnan
    1243                    $C$DW$68        .dwtag  DW_TAG_formal_parameter
    1244                            .dwattr $C$DW$68, DW_AT_name("d")
    1245                            .dwattr $C$DW$68, DW_AT_TI_symbol_name("d")
    1246                            .dwattr $C$DW$68, DW_AT_type(*$C$DW$T$17)
    1247                            .dwattr $C$DW$68, DW_AT_location[DW_OP_regx 0x40]
    1248                    
    1249                    
    1250                    ;*****************************************************************************
    1251                    ;* FUNCTION NAME: __isnan                                                    *
    1252                    ;*                                                                           *
    1253                    ;*   Regs Modified     : A1,A2,A3,A4,V1,V4,V5,V6,V9,SP,LR,SR                 *
    1254                    ;*   Regs Used         : A1,A2,A3,A4,V1,V4,V5,V6,V9,SP,LR,SR,D0,D0_hi        *
    1255                    ;*   Local Frame Size  : 0 Args + 0 Auto + 20 Save = 20 byte                 *
    1256                    ;*****************************************************************************
    1257                    __isnan:
    1258                    ;* --------------------------------------------------------------------------*
    1259                    ;* A3    assigned to $O$K3
    1260                    ;* A1    assigned to $O$S1
    1261                    ;* A2    assigned to d
    1262                    $C$DW$69        .dwtag  DW_TAG_variable
    1263                            .dwattr $C$DW$69, DW_AT_name("d")
    1264                            .dwattr $C$DW$69, DW_AT_TI_symbol_name("d")
    1265                            .dwattr $C$DW$69, DW_AT_type(*$C$DW$T$584)
TI ARM Assembler PC v20.2.5 Mon Nov 29 14:33:27 2021

Copyright (c) 1996-2018 Texas Instruments Incorporated
C:\Users\PSCHAU~1\AppData\Local\Temp\{DCC34CBA-9535-4573-905C-F9C061991809} PAGE   24

    1266                            .dwattr $C$DW$69, DW_AT_location[DW_OP_reg1 DW_OP_piece 4 DW_OP_reg9 DW_OP_piece 4]
    1267                    
    1268                            .dwcfi  cfa_offset, 0
    1269 00000000 4398E92D          PUSH      {A4, V1, V4, V5, V6, LR} ; [DPU_V7M3_PIPE]  ; [KEEP 32-BIT INS]
    1270                            .dwcfi  cfa_offset, 24
    1271                            .dwcfi  save_reg_to_mem, 14, -4
    1272                            .dwcfi  save_reg_to_mem, 9, -8
    1273                            .dwcfi  save_reg_to_mem, 8, -12
    1274                            .dwcfi  save_reg_to_mem, 7, -16
    1275                            .dwcfi  save_reg_to_mem, 4, -20
    1276                            .dwcfi  save_reg_to_mem, 3, -24
    1277 00000004 1B10EC52          VMOV      A2,A3, D0             ; [DPU_MERLIN_PIPE] |342|  ; [KEEP 32-BIT INS]
    1278                            .dwpsn  file "C:/ti/ccs1040/ccs/tools/compiler/ti-cgt-arm_20.2.5.LTS/include/_defs.h",line 342
    1279 00000008 74F0F647          MOV       V1, #32752            ; [DPU_V7M3_PIPE] |342|  ; [KEEP 32-BIT INS]
    1280 0000000c 2000              MOVS      A1, #0                ; [DPU_V7M3_PIPE] |342|  ; [ORIG 16-BIT INS]
    1281 0000000e 4312EA04          AND       A4, V1, A3, LSR #16   ; [DPU_V7M3_PIPE] |342|  ; [KEEP 32-BIT INS]
    1282 00000012 429C              CMP       V1, A4                ; [DPU_V7M3_PIPE] |342|  ; [ORIG 16-BIT INS]
    1283 00000014 D115              BNE       ||$C$L6||             ; [DPU_V7M3_PIPE] |342|  ; [ORIG 16-BIT INS]
    1284                            ; BRANCHCC OCCURS {||$C$L6||}    ; [] |342| 
    1285                    ;* --------------------------------------------------------------------------*
    1286 00000016 77FFF64F          MOVW      V4, #65535            ; [DPU_V7M3_PIPE] |342|  ; [KEEP 32-BIT INS]
    1287 0000001a 0800F04F          MOV       V5, #0                ; [DPU_V7M3_PIPE] |342|  ; [KEEP 32-BIT INS]
    1288 0000001e 0012              LSLS      A3, A3, #0            ; [DPU_V7M3_PIPE] |342|  ; [ORIG 16-BIT INS]
    1289 00000020 468E              MOV       LR, A2                ; [DPU_V7M3_PIPE] |342|  ; [ORIG 16-BIT INS]
    1290 00000022 39FFF04F          MOV       V6, #-1               ; [DPU_V7M3_PIPE] |342|  ; [KEEP 32-BIT INS]
    1291 00000026 070FF2C0          MOVT      V4, #15               ; [DPU_V7M3_PIPE] |342|  ; [KEEP 32-BIT INS]
    1292 0000002a 0C02EA48          ORR       V9, V5, A3            ; [DPU_V7M3_PIPE] |342|  ; [KEEP 32-BIT INS]
    1293 0000002e 0108EA4E          ORR       A2, LR, V5            ; [DPU_V7M3_PIPE] |342|  ; [KEEP 32-BIT INS]
    1294 00000032 070CEA17          ANDS      V4, V4, V9            ; [DPU_V7M3_PIPE] |342|  ; [KEEP 32-BIT INS]
    1295 00000036 0901EA09          AND       V6, V6, A2            ; [DPU_V7M3_PIPE] |342|  ; [KEEP 32-BIT INS]
    1296 0000003a BF0C              ITE       EQ                    ; [DPU_V7M3_PIPE]  ; [ORIG 16-BIT INS]
    1297 0000003c 0F00F1B9          CMPEQ     V6, #0                ; [DPU_V7M3_PIPE] |342|  ; [KEEP 32-BIT INS]
    1298 00000040 2001              MOVNE     A1, #1                ; [DPU_V7M3_PIPE] |342|  ; [ORIG 16-BIT INS]
    1299                    ;* --------------------------------------------------------------------------*
    1300                    ||$C$L6||:    
    1301                    $C$DW$70        .dwtag  DW_TAG_TI_branch
    1302                            .dwattr $C$DW$70, DW_AT_low_pc(0x00)
    1303                            .dwattr $C$DW$70, DW_AT_TI_return
    1304                    
    1305 00000042 8398E8BD          POP       {A4, V1, V4, V5, V6, PC} ; [DPU_V7M3_PIPE]  ; [KEEP 32-BIT INS]
    1306                            .dwcfi  cfa_offset, 0
    1307                            .dwcfi  restore_reg, 9
    1308                            .dwcfi  restore_reg, 8
    1309                            .dwcfi  restore_reg, 7
    1310                            .dwcfi  restore_reg, 4
    1311                            .dwcfi  restore_reg, 3
    1312                            ; BRANCH OCCURS                  ; [] 
    1313                            .dwattr $C$DW$67, DW_AT_TI_end_file("C:/ti/ccs1040/ccs/tools/compiler/ti-cgt-arm_20.2.5.LTS/in
    1314                            .dwattr $C$DW$67, DW_AT_TI_end_line(0x157)
    1315                            .dwattr $C$DW$67, DW_AT_TI_end_column(0x2f)
    1316                            .dwendentry
    1317                            .dwendtag $C$DW$67
    1318                    
    1319 00000000                   .sect   ".text:__isinfl"
    1320                            .align  8
TI ARM Assembler PC v20.2.5 Mon Nov 29 14:33:27 2021

Copyright (c) 1996-2018 Texas Instruments Incorporated
C:\Users\PSCHAU~1\AppData\Local\Temp\{DCC34CBA-9535-4573-905C-F9C061991809} PAGE   25

    1321                            .clink
    1322                            .thumbfunc __isinfl
    1323 00000000                   .thumb
    1324                            .global __isinfl
    1325                    
    1326                    $C$DW$71        .dwtag  DW_TAG_subprogram
    1327                            .dwattr $C$DW$71, DW_AT_name("__isinfl")
    1328                            .dwattr $C$DW$71, DW_AT_low_pc(__isinfl)
    1329                            .dwattr $C$DW$71, DW_AT_high_pc(0x00)
    1330                            .dwattr $C$DW$71, DW_AT_TI_symbol_name("__isinfl")
    1331                            .dwattr $C$DW$71, DW_AT_external
    1332                            .dwattr $C$DW$71, DW_AT_type(*$C$DW$T$10)
    1333                            .dwattr $C$DW$71, DW_AT_TI_begin_file("C:/ti/ccs1040/ccs/tools/compiler/ti-cgt-arm_20.2.5.LTS/
    1334                            .dwattr $C$DW$71, DW_AT_TI_begin_line(0x17a)
    1335                            .dwattr $C$DW$71, DW_AT_TI_begin_column(0x25)
    1336                            .dwattr $C$DW$71, DW_AT_decl_file("C:/ti/ccs1040/ccs/tools/compiler/ti-cgt-arm_20.2.5.LTS/incl
    1337                            .dwattr $C$DW$71, DW_AT_decl_line(0x17a)
    1338                            .dwattr $C$DW$71, DW_AT_decl_column(0x25)
    1339                            .dwattr $C$DW$71, DW_AT_TI_max_frame_size(0x18)
    1340                            .dwpsn  file "C:/ti/ccs1040/ccs/tools/compiler/ti-cgt-arm_20.2.5.LTS/include/_defs.h",line 379
    1341                    
    1342                            .dwfde $C$DW$CIE, __isinfl
    1343                    $C$DW$72        .dwtag  DW_TAG_formal_parameter
    1344                            .dwattr $C$DW$72, DW_AT_name("e")
    1345                            .dwattr $C$DW$72, DW_AT_TI_symbol_name("e")
    1346                            .dwattr $C$DW$72, DW_AT_type(*$C$DW$T$18)
    1347                            .dwattr $C$DW$72, DW_AT_location[DW_OP_regx 0x40]
    1348                    
    1349                    
    1350                    ;*****************************************************************************
    1351                    ;* FUNCTION NAME: __isinfl                                                   *
    1352                    ;*                                                                           *
    1353                    ;*   Regs Modified     : A1,A2,A3,A4,V1,V4,V5,V6,V9,SP,LR,SR                 *
    1354                    ;*   Regs Used         : A1,A2,A3,A4,V1,V4,V5,V6,V9,SP,LR,SR,D0,D0_hi        *
    1355                    ;*   Local Frame Size  : 0 Args + 0 Auto + 20 Save = 20 byte                 *
    1356                    ;*****************************************************************************
    1357                    __isinfl:
    1358                    ;* --------------------------------------------------------------------------*
    1359                    ;* A3    assigned to $O$K3
    1360                    ;* A1    assigned to $O$S1
    1361                    ;* A2    assigned to e
    1362                    $C$DW$73        .dwtag  DW_TAG_variable
    1363                            .dwattr $C$DW$73, DW_AT_name("e")
    1364                            .dwattr $C$DW$73, DW_AT_TI_symbol_name("e")
    1365                            .dwattr $C$DW$73, DW_AT_type(*$C$DW$T$587)
    1366                            .dwattr $C$DW$73, DW_AT_location[DW_OP_reg1 DW_OP_piece 4 DW_OP_reg9 DW_OP_piece 4]
    1367                    
    1368                            .dwcfi  cfa_offset, 0
    1369 00000000 4398E92D          PUSH      {A4, V1, V4, V5, V6, LR} ; [DPU_V7M3_PIPE]  ; [KEEP 32-BIT INS]
    1370                            .dwcfi  cfa_offset, 24
    1371                            .dwcfi  save_reg_to_mem, 14, -4
    1372                            .dwcfi  save_reg_to_mem, 9, -8
    1373                            .dwcfi  save_reg_to_mem, 8, -12
    1374                            .dwcfi  save_reg_to_mem, 7, -16
    1375                            .dwcfi  save_reg_to_mem, 4, -20
TI ARM Assembler PC v20.2.5 Mon Nov 29 14:33:27 2021

Copyright (c) 1996-2018 Texas Instruments Incorporated
C:\Users\PSCHAU~1\AppData\Local\Temp\{DCC34CBA-9535-4573-905C-F9C061991809} PAGE   26

    1376                            .dwcfi  save_reg_to_mem, 3, -24
    1377 00000004 1B10EC52          VMOV      A2,A3, D0             ; [DPU_MERLIN_PIPE] |379|  ; [KEEP 32-BIT INS]
    1378                            .dwpsn  file "C:/ti/ccs1040/ccs/tools/compiler/ti-cgt-arm_20.2.5.LTS/include/_defs.h",line 379
    1379 00000008 74F0F647          MOV       V1, #32752            ; [DPU_V7M3_PIPE] |379|  ; [KEEP 32-BIT INS]
    1380 0000000c 2000              MOVS      A1, #0                ; [DPU_V7M3_PIPE] |379|  ; [ORIG 16-BIT INS]
    1381 0000000e 4312EA04          AND       A4, V1, A3, LSR #16   ; [DPU_V7M3_PIPE] |379|  ; [KEEP 32-BIT INS]
    1382 00000012 429C              CMP       V1, A4                ; [DPU_V7M3_PIPE] |379|  ; [ORIG 16-BIT INS]
    1383 00000014 D115              BNE       ||$C$L7||             ; [DPU_V7M3_PIPE] |379|  ; [ORIG 16-BIT INS]
    1384                            ; BRANCHCC OCCURS {||$C$L7||}    ; [] |379| 
    1385                    ;* --------------------------------------------------------------------------*
    1386 00000016 77FFF64F          MOVW      V4, #65535            ; [DPU_V7M3_PIPE] |379|  ; [KEEP 32-BIT INS]
    1387 0000001a 0800F04F          MOV       V5, #0                ; [DPU_V7M3_PIPE] |379|  ; [KEEP 32-BIT INS]
    1388 0000001e 0012              LSLS      A3, A3, #0            ; [DPU_V7M3_PIPE] |379|  ; [ORIG 16-BIT INS]
    1389 00000020 468E              MOV       LR, A2                ; [DPU_V7M3_PIPE] |379|  ; [ORIG 16-BIT INS]
    1390 00000022 39FFF04F          MOV       V6, #-1               ; [DPU_V7M3_PIPE] |379|  ; [KEEP 32-BIT INS]
    1391 00000026 070FF2C0          MOVT      V4, #15               ; [DPU_V7M3_PIPE] |379|  ; [KEEP 32-BIT INS]
    1392 0000002a 0C02EA48          ORR       V9, V5, A3            ; [DPU_V7M3_PIPE] |379|  ; [KEEP 32-BIT INS]
    1393 0000002e 0108EA4E          ORR       A2, LR, V5            ; [DPU_V7M3_PIPE] |379|  ; [KEEP 32-BIT INS]
    1394 00000032 070CEA17          ANDS      V4, V4, V9            ; [DPU_V7M3_PIPE] |379|  ; [KEEP 32-BIT INS]
    1395 00000036 0901EA09          AND       V6, V6, A2            ; [DPU_V7M3_PIPE] |379|  ; [KEEP 32-BIT INS]
    1396 0000003a BF04              ITT       EQ                    ; [DPU_V7M3_PIPE]  ; [ORIG 16-BIT INS]
    1397 0000003c 0F00F1B9          CMPEQ     V6, #0                ; [DPU_V7M3_PIPE] |379|  ; [KEEP 32-BIT INS]
    1398 00000040 2001              MOVEQ     A1, #1                ; [DPU_V7M3_PIPE] |379|  ; [ORIG 16-BIT INS]
    1399                    ;* --------------------------------------------------------------------------*
    1400                    ||$C$L7||:    
    1401                    $C$DW$74        .dwtag  DW_TAG_TI_branch
    1402                            .dwattr $C$DW$74, DW_AT_low_pc(0x00)
    1403                            .dwattr $C$DW$74, DW_AT_TI_return
    1404                    
    1405 00000042 8398E8BD          POP       {A4, V1, V4, V5, V6, PC} ; [DPU_V7M3_PIPE]  ; [KEEP 32-BIT INS]
    1406                            .dwcfi  cfa_offset, 0
    1407                            .dwcfi  restore_reg, 9
    1408                            .dwcfi  restore_reg, 8
    1409                            .dwcfi  restore_reg, 7
    1410                            .dwcfi  restore_reg, 4
    1411                            .dwcfi  restore_reg, 3
    1412                            ; BRANCH OCCURS                  ; [] 
    1413                            .dwattr $C$DW$71, DW_AT_TI_end_file("C:/ti/ccs1040/ccs/tools/compiler/ti-cgt-arm_20.2.5.LTS/in
    1414                            .dwattr $C$DW$71, DW_AT_TI_end_line(0x17b)
    1415                            .dwattr $C$DW$71, DW_AT_TI_end_column(0x4c)
    1416                            .dwendentry
    1417                            .dwendtag $C$DW$71
    1418                    
    1419 00000000                   .sect   ".text:__isinff"
    1420                            .align  8
    1421                            .clink
    1422                            .thumbfunc __isinff
    1423 00000000                   .thumb
    1424                            .global __isinff
    1425                    
    1426                    $C$DW$75        .dwtag  DW_TAG_subprogram
    1427                            .dwattr $C$DW$75, DW_AT_name("__isinff")
    1428                            .dwattr $C$DW$75, DW_AT_low_pc(__isinff)
    1429                            .dwattr $C$DW$75, DW_AT_high_pc(0x00)
    1430                            .dwattr $C$DW$75, DW_AT_TI_symbol_name("__isinff")
TI ARM Assembler PC v20.2.5 Mon Nov 29 14:33:27 2021

Copyright (c) 1996-2018 Texas Instruments Incorporated
C:\Users\PSCHAU~1\AppData\Local\Temp\{DCC34CBA-9535-4573-905C-F9C061991809} PAGE   27

    1431                            .dwattr $C$DW$75, DW_AT_external
    1432                            .dwattr $C$DW$75, DW_AT_type(*$C$DW$T$10)
    1433                            .dwattr $C$DW$75, DW_AT_TI_begin_file("C:/ti/ccs1040/ccs/tools/compiler/ti-cgt-arm_20.2.5.LTS/
    1434                            .dwattr $C$DW$75, DW_AT_TI_begin_line(0x176)
    1435                            .dwattr $C$DW$75, DW_AT_TI_begin_column(0x25)
    1436                            .dwattr $C$DW$75, DW_AT_decl_file("C:/ti/ccs1040/ccs/tools/compiler/ti-cgt-arm_20.2.5.LTS/incl
    1437                            .dwattr $C$DW$75, DW_AT_decl_line(0x176)
    1438                            .dwattr $C$DW$75, DW_AT_decl_column(0x25)
    1439                            .dwattr $C$DW$75, DW_AT_TI_max_frame_size(0x00)
    1440                            .dwpsn  file "C:/ti/ccs1040/ccs/tools/compiler/ti-cgt-arm_20.2.5.LTS/include/_defs.h",line 375
    1441                    
    1442                            .dwfde $C$DW$CIE, __isinff
    1443                    $C$DW$76        .dwtag  DW_TAG_formal_parameter
    1444                            .dwattr $C$DW$76, DW_AT_name("f")
    1445                            .dwattr $C$DW$76, DW_AT_TI_symbol_name("f")
    1446                            .dwattr $C$DW$76, DW_AT_type(*$C$DW$T$16)
    1447                            .dwattr $C$DW$76, DW_AT_location[DW_OP_regx 0x40]
    1448                    
    1449                    
    1450                    ;*****************************************************************************
    1451                    ;* FUNCTION NAME: __isinff                                                   *
    1452                    ;*                                                                           *
    1453                    ;*   Regs Modified     : A1,A2,A3,SR                                         *
    1454                    ;*   Regs Used         : A1,A2,A3,LR,SR,D0                                   *
    1455                    ;*   Local Frame Size  : 0 Args + 0 Auto + 0 Save = 0 byte                   *
    1456                    ;*****************************************************************************
    1457                    __isinff:
    1458                    ;* --------------------------------------------------------------------------*
    1459                    ;* A2    assigned to $O$K3
    1460                    ;* A1    assigned to $O$S1
    1461                    ;* D0    assigned to f
    1462                    $C$DW$77        .dwtag  DW_TAG_variable
    1463                            .dwattr $C$DW$77, DW_AT_name("f")
    1464                            .dwattr $C$DW$77, DW_AT_TI_symbol_name("f")
    1465                            .dwattr $C$DW$77, DW_AT_type(*$C$DW$T$578)
    1466                            .dwattr $C$DW$77, DW_AT_location[DW_OP_regx 0x40]
    1467                    
    1468                            .dwcfi  cfa_offset, 0
    1469                            .dwpsn  file "C:/ti/ccs1040/ccs/tools/compiler/ti-cgt-arm_20.2.5.LTS/include/_defs.h",line 375
    1470 00000000 1A10EE10          VMOV      A2, S0                ; [DPU_MERLIN_PIPE] |375|  ; [KEEP 32-BIT INS]
    1471 00000004 0C0A              LSRS      A3, A2, #16           ; [DPU_V7M3_PIPE] |375|  ; [ORIG 16-BIT INS]
    1472 00000006 2000              MOVS      A1, #0                ; [DPU_V7M3_PIPE] |375|  ; [ORIG 16-BIT INS]
    1473 00000008 42FFF402          AND       A3, A3, #32640        ; [DPU_V7M3_PIPE] |375|  ; [KEEP 32-BIT INS]
    1474 0000000c 4FFFF5B2          CMP       A3, #32640            ; [DPU_V7M3_PIPE] |375|  ; [KEEP 32-BIT INS]
    1475 00000010 D106              BNE       ||$C$L8||             ; [DPU_V7M3_PIPE] |375|  ; [ORIG 16-BIT INS]
    1476                            ; BRANCHCC OCCURS {||$C$L8||}    ; [] |375| 
    1477                    ;* --------------------------------------------------------------------------*
    1478 00000012 72FFF64F          MOVW      A3, #65535            ; [DPU_V7M3_PIPE] |375|  ; [KEEP 32-BIT INS]
    1479 00000016 027FF2C0          MOVT      A3, #127              ; [DPU_V7M3_PIPE] |375|  ; [KEEP 32-BIT INS]
    1480 0000001a 420A              TST       A3, A2                ; [DPU_V7M3_PIPE] |375|  ; [ORIG 16-BIT INS]
    1481 0000001c BF08              IT        EQ                    ; [DPU_V7M3_PIPE]  ; [ORIG 16-BIT INS]
    1482 0000001e 2001              MOVEQ     A1, #1                ; [DPU_V7M3_PIPE] |375|  ; [ORIG 16-BIT INS]
    1483                    ;* --------------------------------------------------------------------------*
    1484                    ||$C$L8||:    
    1485                    $C$DW$78        .dwtag  DW_TAG_TI_branch
TI ARM Assembler PC v20.2.5 Mon Nov 29 14:33:27 2021

Copyright (c) 1996-2018 Texas Instruments Incorporated
C:\Users\PSCHAU~1\AppData\Local\Temp\{DCC34CBA-9535-4573-905C-F9C061991809} PAGE   28

    1486                            .dwattr $C$DW$78, DW_AT_low_pc(0x00)
    1487                            .dwattr $C$DW$78, DW_AT_TI_return
    1488                    
    1489 00000020 4770              BX        LR                    ; [DPU_V7M3_PIPE]  ; [ORIG 16-BIT INS]
    1490                            ; BRANCH OCCURS                  ; [] 
    1491                            .dwattr $C$DW$75, DW_AT_TI_end_file("C:/ti/ccs1040/ccs/tools/compiler/ti-cgt-arm_20.2.5.LTS/in
    1492                            .dwattr $C$DW$75, DW_AT_TI_end_line(0x177)
    1493                            .dwattr $C$DW$75, DW_AT_TI_end_column(0x48)
    1494                            .dwendentry
    1495                            .dwendtag $C$DW$75
    1496                    
    1497 00000000                   .sect   ".text:__isinf"
    1498                            .align  8
    1499                            .clink
    1500                            .thumbfunc __isinf
    1501 00000000                   .thumb
    1502                            .global __isinf
    1503                    
    1504                    $C$DW$79        .dwtag  DW_TAG_subprogram
    1505                            .dwattr $C$DW$79, DW_AT_name("__isinf")
    1506                            .dwattr $C$DW$79, DW_AT_low_pc(__isinf)
    1507                            .dwattr $C$DW$79, DW_AT_high_pc(0x00)
    1508                            .dwattr $C$DW$79, DW_AT_TI_symbol_name("__isinf")
    1509                            .dwattr $C$DW$79, DW_AT_external
    1510                            .dwattr $C$DW$79, DW_AT_type(*$C$DW$T$10)
    1511                            .dwattr $C$DW$79, DW_AT_TI_begin_file("C:/ti/ccs1040/ccs/tools/compiler/ti-cgt-arm_20.2.5.LTS/
    1512                            .dwattr $C$DW$79, DW_AT_TI_begin_line(0x178)
    1513                            .dwattr $C$DW$79, DW_AT_TI_begin_column(0x25)
    1514                            .dwattr $C$DW$79, DW_AT_decl_file("C:/ti/ccs1040/ccs/tools/compiler/ti-cgt-arm_20.2.5.LTS/incl
    1515                            .dwattr $C$DW$79, DW_AT_decl_line(0x178)
    1516                            .dwattr $C$DW$79, DW_AT_decl_column(0x25)
    1517                            .dwattr $C$DW$79, DW_AT_TI_max_frame_size(0x18)
    1518                            .dwpsn  file "C:/ti/ccs1040/ccs/tools/compiler/ti-cgt-arm_20.2.5.LTS/include/_defs.h",line 377
    1519                    
    1520                            .dwfde $C$DW$CIE, __isinf
    1521                    $C$DW$80        .dwtag  DW_TAG_formal_parameter
    1522                            .dwattr $C$DW$80, DW_AT_name("d")
    1523                            .dwattr $C$DW$80, DW_AT_TI_symbol_name("d")
    1524                            .dwattr $C$DW$80, DW_AT_type(*$C$DW$T$17)
    1525                            .dwattr $C$DW$80, DW_AT_location[DW_OP_regx 0x40]
    1526                    
    1527                    
    1528                    ;*****************************************************************************
    1529                    ;* FUNCTION NAME: __isinf                                                    *
    1530                    ;*                                                                           *
    1531                    ;*   Regs Modified     : A1,A2,A3,A4,V1,V4,V5,V6,V9,SP,LR,SR                 *
    1532                    ;*   Regs Used         : A1,A2,A3,A4,V1,V4,V5,V6,V9,SP,LR,SR,D0,D0_hi        *
    1533                    ;*   Local Frame Size  : 0 Args + 0 Auto + 20 Save = 20 byte                 *
    1534                    ;*****************************************************************************
    1535                    __isinf:
    1536                    ;* --------------------------------------------------------------------------*
    1537                    ;* A3    assigned to $O$K3
    1538                    ;* A1    assigned to $O$S1
    1539                    ;* A2    assigned to d
    1540                    $C$DW$81        .dwtag  DW_TAG_variable
TI ARM Assembler PC v20.2.5 Mon Nov 29 14:33:27 2021

Copyright (c) 1996-2018 Texas Instruments Incorporated
C:\Users\PSCHAU~1\AppData\Local\Temp\{DCC34CBA-9535-4573-905C-F9C061991809} PAGE   29

    1541                            .dwattr $C$DW$81, DW_AT_name("d")
    1542                            .dwattr $C$DW$81, DW_AT_TI_symbol_name("d")
    1543                            .dwattr $C$DW$81, DW_AT_type(*$C$DW$T$584)
    1544                            .dwattr $C$DW$81, DW_AT_location[DW_OP_reg1 DW_OP_piece 4 DW_OP_reg9 DW_OP_piece 4]
    1545                    
    1546                            .dwcfi  cfa_offset, 0
    1547 00000000 4398E92D          PUSH      {A4, V1, V4, V5, V6, LR} ; [DPU_V7M3_PIPE]  ; [KEEP 32-BIT INS]
    1548                            .dwcfi  cfa_offset, 24
    1549                            .dwcfi  save_reg_to_mem, 14, -4
    1550                            .dwcfi  save_reg_to_mem, 9, -8
    1551                            .dwcfi  save_reg_to_mem, 8, -12
    1552                            .dwcfi  save_reg_to_mem, 7, -16
    1553                            .dwcfi  save_reg_to_mem, 4, -20
    1554                            .dwcfi  save_reg_to_mem, 3, -24
    1555 00000004 1B10EC52          VMOV      A2,A3, D0             ; [DPU_MERLIN_PIPE] |377|  ; [KEEP 32-BIT INS]
    1556                            .dwpsn  file "C:/ti/ccs1040/ccs/tools/compiler/ti-cgt-arm_20.2.5.LTS/include/_defs.h",line 377
    1557 00000008 74F0F647          MOV       V1, #32752            ; [DPU_V7M3_PIPE] |377|  ; [KEEP 32-BIT INS]
    1558 0000000c 2000              MOVS      A1, #0                ; [DPU_V7M3_PIPE] |377|  ; [ORIG 16-BIT INS]
    1559 0000000e 4312EA04          AND       A4, V1, A3, LSR #16   ; [DPU_V7M3_PIPE] |377|  ; [KEEP 32-BIT INS]
    1560 00000012 429C              CMP       V1, A4                ; [DPU_V7M3_PIPE] |377|  ; [ORIG 16-BIT INS]
    1561 00000014 D115              BNE       ||$C$L9||             ; [DPU_V7M3_PIPE] |377|  ; [ORIG 16-BIT INS]
    1562                            ; BRANCHCC OCCURS {||$C$L9||}    ; [] |377| 
    1563                    ;* --------------------------------------------------------------------------*
    1564 00000016 77FFF64F          MOVW      V4, #65535            ; [DPU_V7M3_PIPE] |377|  ; [KEEP 32-BIT INS]
    1565 0000001a 0800F04F          MOV       V5, #0                ; [DPU_V7M3_PIPE] |377|  ; [KEEP 32-BIT INS]
    1566 0000001e 0012              LSLS      A3, A3, #0            ; [DPU_V7M3_PIPE] |377|  ; [ORIG 16-BIT INS]
    1567 00000020 468E              MOV       LR, A2                ; [DPU_V7M3_PIPE] |377|  ; [ORIG 16-BIT INS]
    1568 00000022 39FFF04F          MOV       V6, #-1               ; [DPU_V7M3_PIPE] |377|  ; [KEEP 32-BIT INS]
    1569 00000026 070FF2C0          MOVT      V4, #15               ; [DPU_V7M3_PIPE] |377|  ; [KEEP 32-BIT INS]
    1570 0000002a 0C02EA48          ORR       V9, V5, A3            ; [DPU_V7M3_PIPE] |377|  ; [KEEP 32-BIT INS]
    1571 0000002e 0108EA4E          ORR       A2, LR, V5            ; [DPU_V7M3_PIPE] |377|  ; [KEEP 32-BIT INS]
    1572 00000032 070CEA17          ANDS      V4, V4, V9            ; [DPU_V7M3_PIPE] |377|  ; [KEEP 32-BIT INS]
    1573 00000036 0901EA09          AND       V6, V6, A2            ; [DPU_V7M3_PIPE] |377|  ; [KEEP 32-BIT INS]
    1574 0000003a BF04              ITT       EQ                    ; [DPU_V7M3_PIPE]  ; [ORIG 16-BIT INS]
    1575 0000003c 0F00F1B9          CMPEQ     V6, #0                ; [DPU_V7M3_PIPE] |377|  ; [KEEP 32-BIT INS]
    1576 00000040 2001              MOVEQ     A1, #1                ; [DPU_V7M3_PIPE] |377|  ; [ORIG 16-BIT INS]
    1577                    ;* --------------------------------------------------------------------------*
    1578                    ||$C$L9||:    
    1579                    $C$DW$82        .dwtag  DW_TAG_TI_branch
    1580                            .dwattr $C$DW$82, DW_AT_low_pc(0x00)
    1581                            .dwattr $C$DW$82, DW_AT_TI_return
    1582                    
    1583 00000042 8398E8BD          POP       {A4, V1, V4, V5, V6, PC} ; [DPU_V7M3_PIPE]  ; [KEEP 32-BIT INS]
    1584                            .dwcfi  cfa_offset, 0
    1585                            .dwcfi  restore_reg, 9
    1586                            .dwcfi  restore_reg, 8
    1587                            .dwcfi  restore_reg, 7
    1588                            .dwcfi  restore_reg, 4
    1589                            .dwcfi  restore_reg, 3
    1590                            ; BRANCH OCCURS                  ; [] 
    1591                            .dwattr $C$DW$79, DW_AT_TI_end_file("C:/ti/ccs1040/ccs/tools/compiler/ti-cgt-arm_20.2.5.LTS/in
    1592                            .dwattr $C$DW$79, DW_AT_TI_end_line(0x179)
    1593                            .dwattr $C$DW$79, DW_AT_TI_end_column(0x4a)
    1594                            .dwendentry
    1595                            .dwendtag $C$DW$79
TI ARM Assembler PC v20.2.5 Mon Nov 29 14:33:27 2021

Copyright (c) 1996-2018 Texas Instruments Incorporated
C:\Users\PSCHAU~1\AppData\Local\Temp\{DCC34CBA-9535-4573-905C-F9C061991809} PAGE   30

    1596                    
    1597 00000000                   .sect   ".text:__isfinitel"
    1598                            .align  8
    1599                            .clink
    1600                            .thumbfunc __isfinitel
    1601 00000000                   .thumb
    1602                            .global __isfinitel
    1603                    
    1604                    $C$DW$83        .dwtag  DW_TAG_subprogram
    1605                            .dwattr $C$DW$83, DW_AT_name("__isfinitel")
    1606                            .dwattr $C$DW$83, DW_AT_low_pc(__isfinitel)
    1607                            .dwattr $C$DW$83, DW_AT_high_pc(0x00)
    1608                            .dwattr $C$DW$83, DW_AT_TI_symbol_name("__isfinitel")
    1609                            .dwattr $C$DW$83, DW_AT_external
    1610                            .dwattr $C$DW$83, DW_AT_type(*$C$DW$T$10)
    1611                            .dwattr $C$DW$83, DW_AT_TI_begin_file("C:/ti/ccs1040/ccs/tools/compiler/ti-cgt-arm_20.2.5.LTS/
    1612                            .dwattr $C$DW$83, DW_AT_TI_begin_line(0x152)
    1613                            .dwattr $C$DW$83, DW_AT_TI_begin_column(0x25)
    1614                            .dwattr $C$DW$83, DW_AT_decl_file("C:/ti/ccs1040/ccs/tools/compiler/ti-cgt-arm_20.2.5.LTS/incl
    1615                            .dwattr $C$DW$83, DW_AT_decl_line(0x152)
    1616                            .dwattr $C$DW$83, DW_AT_decl_column(0x25)
    1617                            .dwattr $C$DW$83, DW_AT_TI_max_frame_size(0x00)
    1618                            .dwpsn  file "C:/ti/ccs1040/ccs/tools/compiler/ti-cgt-arm_20.2.5.LTS/include/_defs.h",line 339
    1619                    
    1620                            .dwfde $C$DW$CIE, __isfinitel
    1621                    $C$DW$84        .dwtag  DW_TAG_formal_parameter
    1622                            .dwattr $C$DW$84, DW_AT_name("e")
    1623                            .dwattr $C$DW$84, DW_AT_TI_symbol_name("e")
    1624                            .dwattr $C$DW$84, DW_AT_type(*$C$DW$T$18)
    1625                            .dwattr $C$DW$84, DW_AT_location[DW_OP_regx 0x40]
    1626                    
    1627                    
    1628                    ;*****************************************************************************
    1629                    ;* FUNCTION NAME: __isfinitel                                                *
    1630                    ;*                                                                           *
    1631                    ;*   Regs Modified     : A1,A2,A3,A4,SR                                      *
    1632                    ;*   Regs Used         : A1,A2,A3,A4,LR,SR,D0,D0_hi                          *
    1633                    ;*   Local Frame Size  : 0 Args + 0 Auto + 0 Save = 0 byte                   *
    1634                    ;*****************************************************************************
    1635 00000000           __isfinitel:
    1636                    ;* --------------------------------------------------------------------------*
    1637                            .dwcfi  cfa_offset, 0
    1638 00000000 2B10EC53          VMOV      A3,A4, D0             ; [DPU_MERLIN_PIPE] |339|  ; [KEEP 32-BIT INS]
    1639                            .dwpsn  file "C:/ti/ccs1040/ccs/tools/compiler/ti-cgt-arm_20.2.5.LTS/include/_defs.h",line 339
    1640 00000004 72F0F647          MOV       A3, #32752            ; [DPU_V7M3_PIPE] |339|  ; [KEEP 32-BIT INS]
    1641                            .dwpsn  file "C:/ti/ccs1040/ccs/tools/compiler/ti-cgt-arm_20.2.5.LTS/include/_defs.h",line 339
    1642 00000008 4618              MOV       A1, A4                ; [DPU_V7M3_PIPE] |339|  ; [ORIG 16-BIT INS]
    1643                            .dwpsn  file "C:/ti/ccs1040/ccs/tools/compiler/ti-cgt-arm_20.2.5.LTS/include/_defs.h",line 339
    1644 0000000a 4110EA02          AND       A2, A3, A1, LSR #16   ; [DPU_V7M3_PIPE] |339|  ; [KEEP 32-BIT INS]
    1645 0000000e 2000              MOVS      A1, #0                ; [DPU_V7M3_PIPE] |339|  ; [ORIG 16-BIT INS]
    1646 00000010 428A              CMP       A3, A2                ; [DPU_V7M3_PIPE] |339|  ; [ORIG 16-BIT INS]
    1647 00000012 BF18              IT        NE                    ; [DPU_V7M3_PIPE]  ; [ORIG 16-BIT INS]
    1648 00000014 2001              MOVNE     A1, #1                ; [DPU_V7M3_PIPE] |339|  ; [ORIG 16-BIT INS]
    1649                    $C$DW$85        .dwtag  DW_TAG_TI_branch
    1650                            .dwattr $C$DW$85, DW_AT_low_pc(0x00)
TI ARM Assembler PC v20.2.5 Mon Nov 29 14:33:27 2021

Copyright (c) 1996-2018 Texas Instruments Incorporated
C:\Users\PSCHAU~1\AppData\Local\Temp\{DCC34CBA-9535-4573-905C-F9C061991809} PAGE   31

    1651                            .dwattr $C$DW$85, DW_AT_TI_return
    1652                    
    1653 00000016 4770              BX        LR                    ; [DPU_V7M3_PIPE]  ; [ORIG 16-BIT INS]
    1654                            ; BRANCH OCCURS                  ; [] 
    1655                            .dwattr $C$DW$83, DW_AT_TI_end_file("C:/ti/ccs1040/ccs/tools/compiler/ti-cgt-arm_20.2.5.LTS/in
    1656                            .dwattr $C$DW$83, DW_AT_TI_end_line(0x153)
    1657                            .dwattr $C$DW$83, DW_AT_TI_end_column(0x2f)
    1658                            .dwendentry
    1659                            .dwendtag $C$DW$83
    1660                    
    1661 00000000                   .sect   ".text:__isfinitef"
    1662                            .align  8
    1663                            .clink
    1664                            .thumbfunc __isfinitef
    1665 00000000                   .thumb
    1666                            .global __isfinitef
    1667                    
    1668                    $C$DW$86        .dwtag  DW_TAG_subprogram
    1669                            .dwattr $C$DW$86, DW_AT_name("__isfinitef")
    1670                            .dwattr $C$DW$86, DW_AT_low_pc(__isfinitef)
    1671                            .dwattr $C$DW$86, DW_AT_high_pc(0x00)
    1672                            .dwattr $C$DW$86, DW_AT_TI_symbol_name("__isfinitef")
    1673                            .dwattr $C$DW$86, DW_AT_external
    1674                            .dwattr $C$DW$86, DW_AT_type(*$C$DW$T$10)
    1675                            .dwattr $C$DW$86, DW_AT_TI_begin_file("C:/ti/ccs1040/ccs/tools/compiler/ti-cgt-arm_20.2.5.LTS/
    1676                            .dwattr $C$DW$86, DW_AT_TI_begin_line(0x150)
    1677                            .dwattr $C$DW$86, DW_AT_TI_begin_column(0x25)
    1678                            .dwattr $C$DW$86, DW_AT_decl_file("C:/ti/ccs1040/ccs/tools/compiler/ti-cgt-arm_20.2.5.LTS/incl
    1679                            .dwattr $C$DW$86, DW_AT_decl_line(0x150)
    1680                            .dwattr $C$DW$86, DW_AT_decl_column(0x25)
    1681                            .dwattr $C$DW$86, DW_AT_TI_max_frame_size(0x00)
    1682                            .dwpsn  file "C:/ti/ccs1040/ccs/tools/compiler/ti-cgt-arm_20.2.5.LTS/include/_defs.h",line 337
    1683                    
    1684                            .dwfde $C$DW$CIE, __isfinitef
    1685                    $C$DW$87        .dwtag  DW_TAG_formal_parameter
    1686                            .dwattr $C$DW$87, DW_AT_name("f")
    1687                            .dwattr $C$DW$87, DW_AT_TI_symbol_name("f")
    1688                            .dwattr $C$DW$87, DW_AT_type(*$C$DW$T$16)
    1689                            .dwattr $C$DW$87, DW_AT_location[DW_OP_regx 0x40]
    1690                    
    1691                    
    1692                    ;*****************************************************************************
    1693                    ;* FUNCTION NAME: __isfinitef                                                *
    1694                    ;*                                                                           *
    1695                    ;*   Regs Modified     : A1,A2,SR                                            *
    1696                    ;*   Regs Used         : A1,A2,LR,SR,D0                                      *
    1697                    ;*   Local Frame Size  : 0 Args + 0 Auto + 0 Save = 0 byte                   *
    1698                    ;*****************************************************************************
    1699                    __isfinitef:
    1700                    ;* --------------------------------------------------------------------------*
    1701                    ;* D0    assigned to f
    1702                    $C$DW$88        .dwtag  DW_TAG_variable
    1703                            .dwattr $C$DW$88, DW_AT_name("f")
    1704                            .dwattr $C$DW$88, DW_AT_TI_symbol_name("f")
    1705                            .dwattr $C$DW$88, DW_AT_type(*$C$DW$T$578)
TI ARM Assembler PC v20.2.5 Mon Nov 29 14:33:27 2021

Copyright (c) 1996-2018 Texas Instruments Incorporated
C:\Users\PSCHAU~1\AppData\Local\Temp\{DCC34CBA-9535-4573-905C-F9C061991809} PAGE   32

    1706                            .dwattr $C$DW$88, DW_AT_location[DW_OP_regx 0x40]
    1707                    
    1708                            .dwcfi  cfa_offset, 0
    1709                            .dwpsn  file "C:/ti/ccs1040/ccs/tools/compiler/ti-cgt-arm_20.2.5.LTS/include/_defs.h",line 337
    1710 00000000 0A10EE10          VMOV      A1, S0                ; [DPU_MERLIN_PIPE] |337|  ; [KEEP 32-BIT INS]
    1711 00000004 0C01              LSRS      A2, A1, #16           ; [DPU_V7M3_PIPE] |337|  ; [ORIG 16-BIT INS]
    1712 00000006 41FFF401          AND       A2, A2, #32640        ; [DPU_V7M3_PIPE] |337|  ; [KEEP 32-BIT INS]
    1713 0000000a 2000              MOVS      A1, #0                ; [DPU_V7M3_PIPE] |337|  ; [ORIG 16-BIT INS]
    1714 0000000c 4FFFF5B1          CMP       A2, #32640            ; [DPU_V7M3_PIPE] |337|  ; [KEEP 32-BIT INS]
    1715 00000010 BF18              IT        NE                    ; [DPU_V7M3_PIPE]  ; [ORIG 16-BIT INS]
    1716 00000012 2001              MOVNE     A1, #1                ; [DPU_V7M3_PIPE] |337|  ; [ORIG 16-BIT INS]
    1717                    $C$DW$89        .dwtag  DW_TAG_TI_branch
    1718                            .dwattr $C$DW$89, DW_AT_low_pc(0x00)
    1719                            .dwattr $C$DW$89, DW_AT_TI_return
    1720                    
    1721 00000014 4770              BX        LR                    ; [DPU_V7M3_PIPE]  ; [ORIG 16-BIT INS]
    1722                            ; BRANCH OCCURS                  ; [] 
    1723                            .dwattr $C$DW$86, DW_AT_TI_end_file("C:/ti/ccs1040/ccs/tools/compiler/ti-cgt-arm_20.2.5.LTS/in
    1724                            .dwattr $C$DW$86, DW_AT_TI_end_line(0x151)
    1725                            .dwattr $C$DW$86, DW_AT_TI_end_column(0x2d)
    1726                            .dwendentry
    1727                            .dwendtag $C$DW$86
    1728                    
    1729 00000000                   .sect   ".text:__isfinite"
    1730                            .align  8
    1731                            .clink
    1732                            .thumbfunc __isfinite
    1733 00000000                   .thumb
    1734                            .global __isfinite
    1735                    
    1736                    $C$DW$90        .dwtag  DW_TAG_subprogram
    1737                            .dwattr $C$DW$90, DW_AT_name("__isfinite")
    1738                            .dwattr $C$DW$90, DW_AT_low_pc(__isfinite)
    1739                            .dwattr $C$DW$90, DW_AT_high_pc(0x00)
    1740                            .dwattr $C$DW$90, DW_AT_TI_symbol_name("__isfinite")
    1741                            .dwattr $C$DW$90, DW_AT_external
    1742                            .dwattr $C$DW$90, DW_AT_type(*$C$DW$T$10)
    1743                            .dwattr $C$DW$90, DW_AT_TI_begin_file("C:/ti/ccs1040/ccs/tools/compiler/ti-cgt-arm_20.2.5.LTS/
    1744                            .dwattr $C$DW$90, DW_AT_TI_begin_line(0x14e)
    1745                            .dwattr $C$DW$90, DW_AT_TI_begin_column(0x25)
    1746                            .dwattr $C$DW$90, DW_AT_decl_file("C:/ti/ccs1040/ccs/tools/compiler/ti-cgt-arm_20.2.5.LTS/incl
    1747                            .dwattr $C$DW$90, DW_AT_decl_line(0x14e)
    1748                            .dwattr $C$DW$90, DW_AT_decl_column(0x25)
    1749                            .dwattr $C$DW$90, DW_AT_TI_max_frame_size(0x00)
    1750                            .dwpsn  file "C:/ti/ccs1040/ccs/tools/compiler/ti-cgt-arm_20.2.5.LTS/include/_defs.h",line 335
    1751                    
    1752                            .dwfde $C$DW$CIE, __isfinite
    1753                    $C$DW$91        .dwtag  DW_TAG_formal_parameter
    1754                            .dwattr $C$DW$91, DW_AT_name("d")
    1755                            .dwattr $C$DW$91, DW_AT_TI_symbol_name("d")
    1756                            .dwattr $C$DW$91, DW_AT_type(*$C$DW$T$17)
    1757                            .dwattr $C$DW$91, DW_AT_location[DW_OP_regx 0x40]
    1758                    
    1759                    
    1760                    ;*****************************************************************************
TI ARM Assembler PC v20.2.5 Mon Nov 29 14:33:27 2021

Copyright (c) 1996-2018 Texas Instruments Incorporated
C:\Users\PSCHAU~1\AppData\Local\Temp\{DCC34CBA-9535-4573-905C-F9C061991809} PAGE   33

    1761                    ;* FUNCTION NAME: __isfinite                                                 *
    1762                    ;*                                                                           *
    1763                    ;*   Regs Modified     : A1,A2,A3,A4,SR                                      *
    1764                    ;*   Regs Used         : A1,A2,A3,A4,LR,SR,D0,D0_hi                          *
    1765                    ;*   Local Frame Size  : 0 Args + 0 Auto + 0 Save = 0 byte                   *
    1766                    ;*****************************************************************************
    1767 00000000           __isfinite:
    1768                    ;* --------------------------------------------------------------------------*
    1769                            .dwcfi  cfa_offset, 0
    1770 00000000 2B10EC53          VMOV      A3,A4, D0             ; [DPU_MERLIN_PIPE] |335|  ; [KEEP 32-BIT INS]
    1771                            .dwpsn  file "C:/ti/ccs1040/ccs/tools/compiler/ti-cgt-arm_20.2.5.LTS/include/_defs.h",line 335
    1772 00000004 72F0F647          MOV       A3, #32752            ; [DPU_V7M3_PIPE] |335|  ; [KEEP 32-BIT INS]
    1773                            .dwpsn  file "C:/ti/ccs1040/ccs/tools/compiler/ti-cgt-arm_20.2.5.LTS/include/_defs.h",line 335
    1774 00000008 4618              MOV       A1, A4                ; [DPU_V7M3_PIPE] |335|  ; [ORIG 16-BIT INS]
    1775                            .dwpsn  file "C:/ti/ccs1040/ccs/tools/compiler/ti-cgt-arm_20.2.5.LTS/include/_defs.h",line 335
    1776 0000000a 4110EA02          AND       A2, A3, A1, LSR #16   ; [DPU_V7M3_PIPE] |335|  ; [KEEP 32-BIT INS]
    1777 0000000e 2000              MOVS      A1, #0                ; [DPU_V7M3_PIPE] |335|  ; [ORIG 16-BIT INS]
    1778 00000010 428A              CMP       A3, A2                ; [DPU_V7M3_PIPE] |335|  ; [ORIG 16-BIT INS]
    1779 00000012 BF18              IT        NE                    ; [DPU_V7M3_PIPE]  ; [ORIG 16-BIT INS]
    1780 00000014 2001              MOVNE     A1, #1                ; [DPU_V7M3_PIPE] |335|  ; [ORIG 16-BIT INS]
    1781                    $C$DW$92        .dwtag  DW_TAG_TI_branch
    1782                            .dwattr $C$DW$92, DW_AT_low_pc(0x00)
    1783                            .dwattr $C$DW$92, DW_AT_TI_return
    1784                    
    1785 00000016 4770              BX        LR                    ; [DPU_V7M3_PIPE]  ; [ORIG 16-BIT INS]
    1786                            ; BRANCH OCCURS                  ; [] 
    1787                            .dwattr $C$DW$90, DW_AT_TI_end_file("C:/ti/ccs1040/ccs/tools/compiler/ti-cgt-arm_20.2.5.LTS/in
    1788                            .dwattr $C$DW$90, DW_AT_TI_end_line(0x14f)
    1789                            .dwattr $C$DW$90, DW_AT_TI_end_column(0x2e)
    1790                            .dwendentry
    1791                            .dwendtag $C$DW$90
    1792                    
    1793 00000000                   .sect   ".text:__fpclassifyl"
    1794                            .align  8
    1795                            .clink
    1796                            .thumbfunc __fpclassifyl
    1797 00000000                   .thumb
    1798                            .global __fpclassifyl
    1799                    
    1800                    $C$DW$93        .dwtag  DW_TAG_subprogram
    1801                            .dwattr $C$DW$93, DW_AT_name("__fpclassifyl")
    1802                            .dwattr $C$DW$93, DW_AT_low_pc(__fpclassifyl)
    1803                            .dwattr $C$DW$93, DW_AT_high_pc(0x00)
    1804                            .dwattr $C$DW$93, DW_AT_TI_symbol_name("__fpclassifyl")
    1805                            .dwattr $C$DW$93, DW_AT_external
    1806                            .dwattr $C$DW$93, DW_AT_type(*$C$DW$T$10)
    1807                            .dwattr $C$DW$93, DW_AT_TI_begin_file("C:/ti/ccs1040/ccs/tools/compiler/ti-cgt-arm_20.2.5.LTS/
    1808                            .dwattr $C$DW$93, DW_AT_TI_begin_line(0x1ae)
    1809                            .dwattr $C$DW$93, DW_AT_TI_begin_column(0x25)
    1810                            .dwattr $C$DW$93, DW_AT_decl_file("C:/ti/ccs1040/ccs/tools/compiler/ti-cgt-arm_20.2.5.LTS/incl
    1811                            .dwattr $C$DW$93, DW_AT_decl_line(0x1ae)
    1812                            .dwattr $C$DW$93, DW_AT_decl_column(0x25)
    1813                            .dwattr $C$DW$93, DW_AT_TI_max_frame_size(0x18)
    1814                            .dwpsn  file "C:/ti/ccs1040/ccs/tools/compiler/ti-cgt-arm_20.2.5.LTS/include/_defs.h",line 431
    1815                    
TI ARM Assembler PC v20.2.5 Mon Nov 29 14:33:27 2021

Copyright (c) 1996-2018 Texas Instruments Incorporated
C:\Users\PSCHAU~1\AppData\Local\Temp\{DCC34CBA-9535-4573-905C-F9C061991809} PAGE   34

    1816                            .dwfde $C$DW$CIE, __fpclassifyl
    1817                    $C$DW$94        .dwtag  DW_TAG_formal_parameter
    1818                            .dwattr $C$DW$94, DW_AT_name("e")
    1819                            .dwattr $C$DW$94, DW_AT_TI_symbol_name("e")
    1820                            .dwattr $C$DW$94, DW_AT_type(*$C$DW$T$18)
    1821                            .dwattr $C$DW$94, DW_AT_location[DW_OP_regx 0x40]
    1822                    
    1823                    
    1824                    ;*****************************************************************************
    1825                    ;* FUNCTION NAME: __fpclassifyl                                              *
    1826                    ;*                                                                           *
    1827                    ;*   Regs Modified     : A1,A2,A3,A4,V1,V4,V5,V6,V8,V9,SP,LR,SR              *
    1828                    ;*   Regs Used         : A1,A2,A3,A4,V1,V4,V5,V6,V8,V9,SP,LR,SR,D0,D0_hi     *
    1829                    ;*   Local Frame Size  : 0 Args + 0 Auto + 24 Save = 24 byte                 *
    1830                    ;*****************************************************************************
    1831                    __fpclassifyl:
    1832                    ;* --------------------------------------------------------------------------*
    1833                    ;* V9    assigned to $O$K1
    1834                    ;* LR    assigned to e
    1835                    $C$DW$95        .dwtag  DW_TAG_variable
    1836                            .dwattr $C$DW$95, DW_AT_name("e")
    1837                            .dwattr $C$DW$95, DW_AT_TI_symbol_name("e")
    1838                            .dwattr $C$DW$95, DW_AT_type(*$C$DW$T$587)
    1839                            .dwattr $C$DW$95, DW_AT_location[DW_OP_reg14 DW_OP_piece 4 DW_OP_reg0 DW_OP_piece 4]
    1840                    
    1841                            .dwcfi  cfa_offset, 0
    1842 00000000 4B90E92D          PUSH      {V1, V4, V5, V6, V8, LR} ; [DPU_V7M3_PIPE]  ; [KEEP 32-BIT INS]
    1843                            .dwcfi  cfa_offset, 24
    1844                            .dwcfi  save_reg_to_mem, 14, -4
    1845                            .dwcfi  save_reg_to_mem, 11, -8
    1846                            .dwcfi  save_reg_to_mem, 9, -12
    1847                            .dwcfi  save_reg_to_mem, 8, -16
    1848                            .dwcfi  save_reg_to_mem, 7, -20
    1849                            .dwcfi  save_reg_to_mem, 4, -24
    1850 00000004 BB10EC5C          VMOV      V8,V9, D0             ; [DPU_MERLIN_PIPE] |431|  ; [KEEP 32-BIT INS]
    1851                            .dwpsn  file "C:/ti/ccs1040/ccs/tools/compiler/ti-cgt-arm_20.2.5.LTS/include/_defs.h",line 436
    1852 00000008 71F0F647          MOV       A2, #32752            ; [DPU_V7M3_PIPE] |436|  ; [KEEP 32-BIT INS]
    1853 0000000c 401CEA01          AND       A1, A2, V9, LSR #16   ; [DPU_V7M3_PIPE] |436|  ; [KEEP 32-BIT INS]
    1854                            .dwpsn  file "C:/ti/ccs1040/ccs/tools/compiler/ti-cgt-arm_20.2.5.LTS/include/_defs.h",line 431
    1855 00000010 46DE              MOV       LR, V8                ; [DPU_V7M3_PIPE] |431|  ; [ORIG 16-BIT INS]
    1856                            .dwpsn  file "C:/ti/ccs1040/ccs/tools/compiler/ti-cgt-arm_20.2.5.LTS/include/_defs.h",line 436
    1857 00000012 4281              CMP       A2, A1                ; [DPU_V7M3_PIPE] |436|  ; [ORIG 16-BIT INS]
    1858 00000014 D118              BNE       ||$C$L10||            ; [DPU_V7M3_PIPE] |436|  ; [ORIG 16-BIT INS]
    1859                            ; BRANCHCC OCCURS {||$C$L10||}   ; [] |436| 
    1860                    ;* --------------------------------------------------------------------------*
    1861 00000016 2000              MOVS      A1, #0                ; [DPU_V7M3_PIPE] |436|  ; [ORIG 16-BIT INS]
    1862 00000018 7BFFF64F          MOVW      V8, #65535            ; [DPU_V7M3_PIPE] |436|  ; [KEEP 32-BIT INS]
    1863 0000001c 4601              MOV       A2, A1                ; [DPU_V7M3_PIPE] |436|  ; [ORIG 16-BIT INS]
    1864 0000001e 030CEA4F          LSL       A4, V9, #0            ; [DPU_V7M3_PIPE] |436|  ; [KEEP 32-BIT INS]
    1865 00000022 39FFF04F          MOV       V6, #-1               ; [DPU_V7M3_PIPE] |436|  ; [KEEP 32-BIT INS]
    1866 00000026 4602              MOV       A3, A1                ; [DPU_V7M3_PIPE] |436|  ; [ORIG 16-BIT INS]
    1867 00000028 0E01EA4E          ORR       LR, LR, A2            ; [DPU_V7M3_PIPE] |436|  ; [KEEP 32-BIT INS]
    1868 0000002c 0B0FF2C0          MOVT      V8, #15               ; [DPU_V7M3_PIPE] |436|  ; [KEEP 32-BIT INS]
    1869 00000030 431A              ORRS      A3, A3, A4            ; [DPU_V7M3_PIPE] |436|  ; [ORIG 16-BIT INS]
    1870 00000032 030EEA09          AND       A4, V6, LR            ; [DPU_V7M3_PIPE] |436|  ; [KEEP 32-BIT INS]
TI ARM Assembler PC v20.2.5 Mon Nov 29 14:33:27 2021

Copyright (c) 1996-2018 Texas Instruments Incorporated
C:\Users\PSCHAU~1\AppData\Local\Temp\{DCC34CBA-9535-4573-905C-F9C061991809} PAGE   35

    1871 00000036 0002EA1B          ANDS      A1, V8, A3            ; [DPU_V7M3_PIPE] |436|  ; [KEEP 32-BIT INS]
    1872 0000003a BF0C              ITE       EQ                    ; [DPU_V7M3_PIPE]  ; [ORIG 16-BIT INS]
    1873 0000003c 2B00              CMPEQ     A4, #0                ; [DPU_V7M3_PIPE] |436|  ; [ORIG 16-BIT INS]
    1874 0000003e 2002              MOVNE     A1, #2                ; [DPU_V7M3_PIPE] |436|  ; [ORIG 16-BIT INS]
    1875 00000040 D12E              BNE       ||$C$L11||            ; [DPU_V7M3_PIPE] |436|  ; [ORIG 16-BIT INS]
    1876                            ; BRANCHCC OCCURS {||$C$L11||}   ; [] |436| 
    1877                    ;* --------------------------------------------------------------------------*
    1878                            .dwcfi  remember_state
    1879 00000042 2001              MOVS      A1, #1                ; [DPU_V7M3_PIPE] |436|  ; [ORIG 16-BIT INS]
    1880                    $C$DW$96        .dwtag  DW_TAG_TI_branch
    1881                            .dwattr $C$DW$96, DW_AT_low_pc(0x00)
    1882                            .dwattr $C$DW$96, DW_AT_TI_return
    1883                    
    1884 00000044 8B90E8BD          POP       {V1, V4, V5, V6, V8, PC} ; [DPU_V7M3_PIPE]  ; [KEEP 32-BIT INS]
    1885                            .dwcfi  cfa_offset, 0
    1886                            .dwcfi  restore_reg, 11
    1887                            .dwcfi  restore_reg, 9
    1888                            .dwcfi  restore_reg, 8
    1889                            .dwcfi  restore_reg, 7
    1890                            .dwcfi  restore_reg, 4
    1891                            ; BRANCH OCCURS                  ; [] 
    1892                            .dwcfi  restore_state
    1893                    ;* --------------------------------------------------------------------------*
    1894                            .align  8
    1895 00000048           ||$C$L10||:    
    1896 00000048 2100              MOVS      A2, #0                ; [DPU_V7M3_PIPE] |436|  ; [ORIG 16-BIT INS]
    1897 0000004a 72FFF240          MOVW      A3, #2047             ; [DPU_V7M3_PIPE] |436|  ; [KEEP 32-BIT INS]
    1898 0000004e 0800F04F          MOV       V5, #0                ; [DPU_V7M3_PIPE] |436|  ; [KEEP 32-BIT INS]
    1899 00000052 501CEA4F          LSR       A1, V9, #20           ; [DPU_V7M3_PIPE] |436|  ; [KEEP 32-BIT INS]
    1900 00000056 150B              ASRS      A4, A2, #20           ; [DPU_V7M3_PIPE] |436|  ; [ORIG 16-BIT INS]
    1901 00000058 030C              LSLS      V1, A2, #12           ; [DPU_V7M3_PIPE] |436|  ; [ORIG 16-BIT INS]
    1902 0000005a 0200F2C0          MOVT      A3, #0                ; [DPU_V7M3_PIPE] |436|  ; [KEEP 32-BIT INS]
    1903 0000005e 0703EA18          ANDS      V4, V5, A4            ; [DPU_V7M3_PIPE] |436|  ; [KEEP 32-BIT INS]
    1904 00000062 0004EA40          ORR       A1, A1, V1            ; [DPU_V7M3_PIPE] |436|  ; [KEEP 32-BIT INS]
    1905 00000066 0200EA02          AND       A3, A3, A1            ; [DPU_V7M3_PIPE] |436|  ; [KEEP 32-BIT INS]
    1906 0000006a BF0C              ITE       EQ                    ; [DPU_V7M3_PIPE]  ; [ORIG 16-BIT INS]
    1907 0000006c 2A00              CMPEQ     A3, #0                ; [DPU_V7M3_PIPE] |436|  ; [ORIG 16-BIT INS]
    1908 0000006e 30FFF04F          MOVNE     A1, #-1               ; [DPU_V7M3_PIPE] |436|  ; [KEEP 32-BIT INS]
    1909 00000072 D115              BNE       ||$C$L11||            ; [DPU_V7M3_PIPE] |436|  ; [ORIG 16-BIT INS]
    1910                            ; BRANCHCC OCCURS {||$C$L11||}   ; [] |436| 
    1911                    ;* --------------------------------------------------------------------------*
    1912 00000074 000CEA4F          LSL       A1, V9, #0            ; [DPU_V7M3_PIPE] |436|  ; [KEEP 32-BIT INS]
    1913 00000078 77FFF64F          MOVW      V4, #65535            ; [DPU_V7M3_PIPE] |436|  ; [KEEP 32-BIT INS]
    1914 0000007c 39FFF04F          MOV       V6, #-1               ; [DPU_V7M3_PIPE] |436|  ; [KEEP 32-BIT INS]
    1915 00000080 0E01EA4E          ORR       LR, LR, A2            ; [DPU_V7M3_PIPE] |436|  ; [KEEP 32-BIT INS]
    1916 00000084 0C00EA41          ORR       V9, A2, A1            ; [DPU_V7M3_PIPE] |436|  ; [KEEP 32-BIT INS]
    1917 00000088 070FF2C0          MOVT      V4, #15               ; [DPU_V7M3_PIPE] |436|  ; [KEEP 32-BIT INS]
    1918 0000008c 090EEA09          AND       V6, V6, LR            ; [DPU_V7M3_PIPE] |436|  ; [KEEP 32-BIT INS]
    1919 00000090 070CEA17          ANDS      V4, V4, V9            ; [DPU_V7M3_PIPE] |436|  ; [KEEP 32-BIT INS]
    1920 00000094 BF0C              ITE       EQ                    ; [DPU_V7M3_PIPE]  ; [ORIG 16-BIT INS]
    1921 00000096 0F00F1B9          CMPEQ     V6, #0                ; [DPU_V7M3_PIPE] |436|  ; [KEEP 32-BIT INS]
    1922 0000009a 0801F06F          MVNNE     V5, #1                ; [DPU_V7M3_PIPE] |436|  ; [KEEP 32-BIT INS]
    1923 0000009e 4640              MOV       A1, V5                ; [DPU_V7M3_PIPE] |436|  ; [ORIG 16-BIT INS]
    1924                    ;* --------------------------------------------------------------------------*
    1925                    ||$C$L11||:    
TI ARM Assembler PC v20.2.5 Mon Nov 29 14:33:27 2021

Copyright (c) 1996-2018 Texas Instruments Incorporated
C:\Users\PSCHAU~1\AppData\Local\Temp\{DCC34CBA-9535-4573-905C-F9C061991809} PAGE   36

    1926                    $C$DW$97        .dwtag  DW_TAG_TI_branch
    1927                            .dwattr $C$DW$97, DW_AT_low_pc(0x00)
    1928                            .dwattr $C$DW$97, DW_AT_TI_return
    1929                    
    1930 000000a0 8B90E8BD          POP       {V1, V4, V5, V6, V8, PC} ; [DPU_V7M3_PIPE]  ; [KEEP 32-BIT INS]
    1931                            .dwcfi  cfa_offset, 0
    1932                            .dwcfi  restore_reg, 11
    1933                            .dwcfi  restore_reg, 9
    1934                            .dwcfi  restore_reg, 8
    1935                            .dwcfi  restore_reg, 7
    1936                            .dwcfi  restore_reg, 4
    1937                            ; BRANCH OCCURS                  ; [] 
    1938                            .dwattr $C$DW$93, DW_AT_TI_end_file("C:/ti/ccs1040/ccs/tools/compiler/ti-cgt-arm_20.2.5.LTS/in
    1939                            .dwattr $C$DW$93, DW_AT_TI_end_line(0x1bd)
    1940                            .dwattr $C$DW$93, DW_AT_TI_end_column(0x01)
    1941                            .dwendentry
    1942                            .dwendtag $C$DW$93
    1943                    
    1944 00000000                   .sect   ".text:__fpclassifyf"
    1945                            .align  8
    1946                            .clink
    1947                            .thumbfunc __fpclassifyf
    1948 00000000                   .thumb
    1949                            .global __fpclassifyf
    1950                    
    1951                    $C$DW$98        .dwtag  DW_TAG_subprogram
    1952                            .dwattr $C$DW$98, DW_AT_name("__fpclassifyf")
    1953                            .dwattr $C$DW$98, DW_AT_low_pc(__fpclassifyf)
    1954                            .dwattr $C$DW$98, DW_AT_high_pc(0x00)
    1955                            .dwattr $C$DW$98, DW_AT_TI_symbol_name("__fpclassifyf")
    1956                            .dwattr $C$DW$98, DW_AT_external
    1957                            .dwattr $C$DW$98, DW_AT_type(*$C$DW$T$10)
    1958                            .dwattr $C$DW$98, DW_AT_TI_begin_file("C:/ti/ccs1040/ccs/tools/compiler/ti-cgt-arm_20.2.5.LTS/
    1959                            .dwattr $C$DW$98, DW_AT_TI_begin_line(0x18c)
    1960                            .dwattr $C$DW$98, DW_AT_TI_begin_column(0x25)
    1961                            .dwattr $C$DW$98, DW_AT_decl_file("C:/ti/ccs1040/ccs/tools/compiler/ti-cgt-arm_20.2.5.LTS/incl
    1962                            .dwattr $C$DW$98, DW_AT_decl_line(0x18c)
    1963                            .dwattr $C$DW$98, DW_AT_decl_column(0x25)
    1964                            .dwattr $C$DW$98, DW_AT_TI_max_frame_size(0x00)
    1965                            .dwpsn  file "C:/ti/ccs1040/ccs/tools/compiler/ti-cgt-arm_20.2.5.LTS/include/_defs.h",line 397
    1966                    
    1967                            .dwfde $C$DW$CIE, __fpclassifyf
    1968                    $C$DW$99        .dwtag  DW_TAG_formal_parameter
    1969                            .dwattr $C$DW$99, DW_AT_name("f")
    1970                            .dwattr $C$DW$99, DW_AT_TI_symbol_name("f")
    1971                            .dwattr $C$DW$99, DW_AT_type(*$C$DW$T$16)
    1972                            .dwattr $C$DW$99, DW_AT_location[DW_OP_regx 0x40]
    1973                    
    1974                    
    1975                    ;*****************************************************************************
    1976                    ;* FUNCTION NAME: __fpclassifyf                                              *
    1977                    ;*                                                                           *
    1978                    ;*   Regs Modified     : A1,A2,SR                                            *
    1979                    ;*   Regs Used         : A1,A2,LR,SR,D0                                      *
    1980                    ;*   Local Frame Size  : 0 Args + 0 Auto + 0 Save = 0 byte                   *
TI ARM Assembler PC v20.2.5 Mon Nov 29 14:33:27 2021

Copyright (c) 1996-2018 Texas Instruments Incorporated
C:\Users\PSCHAU~1\AppData\Local\Temp\{DCC34CBA-9535-4573-905C-F9C061991809} PAGE   37

    1981                    ;*****************************************************************************
    1982                    __fpclassifyf:
    1983                    ;* --------------------------------------------------------------------------*
    1984                    ;* A2    assigned to $O$K1
    1985                    ;* D0    assigned to f
    1986                    $C$DW$100       .dwtag  DW_TAG_variable
    1987                            .dwattr $C$DW$100, DW_AT_name("f")
    1988                            .dwattr $C$DW$100, DW_AT_TI_symbol_name("f")
    1989                            .dwattr $C$DW$100, DW_AT_type(*$C$DW$T$578)
    1990                            .dwattr $C$DW$100, DW_AT_location[DW_OP_regx 0x40]
    1991                    
    1992                            .dwcfi  cfa_offset, 0
    1993                            .dwpsn  file "C:/ti/ccs1040/ccs/tools/compiler/ti-cgt-arm_20.2.5.LTS/include/_defs.h",line 398
    1994 00000000 1A10EE10          VMOV      A2, S0                ; [DPU_MERLIN_PIPE] |398|  ; [KEEP 32-BIT INS]
    1995                            .dwpsn  file "C:/ti/ccs1040/ccs/tools/compiler/ti-cgt-arm_20.2.5.LTS/include/_defs.h",line 402
    1996 00000004 0C08              LSRS      A1, A2, #16           ; [DPU_V7M3_PIPE] |402|  ; [ORIG 16-BIT INS]
    1997 00000006 40FFF400          AND       A1, A1, #32640        ; [DPU_V7M3_PIPE] |402|  ; [KEEP 32-BIT INS]
    1998 0000000a 4FFFF5B0          CMP       A1, #32640            ; [DPU_V7M3_PIPE] |402|  ; [KEEP 32-BIT INS]
    1999 0000000e D10B              BNE       ||$C$L12||            ; [DPU_V7M3_PIPE] |402|  ; [ORIG 16-BIT INS]
    2000                            ; BRANCHCC OCCURS {||$C$L12||}   ; [] |402| 
    2001                    ;* --------------------------------------------------------------------------*
    2002 00000010 70FFF64F          MOVW      A1, #65535            ; [DPU_V7M3_PIPE] |402|  ; [KEEP 32-BIT INS]
    2003 00000014 007FF2C0          MOVT      A1, #127              ; [DPU_V7M3_PIPE] |402|  ; [KEEP 32-BIT INS]
    2004 00000018 4208              TST       A1, A2                ; [DPU_V7M3_PIPE] |402|  ; [ORIG 16-BIT INS]
    2005 0000001a BF18              IT        NE                    ; [DPU_V7M3_PIPE]  ; [ORIG 16-BIT INS]
    2006 0000001c 2002              MOVNE     A1, #2                ; [DPU_V7M3_PIPE] |402|  ; [ORIG 16-BIT INS]
    2007 0000001e D113              BNE       ||$C$L13||            ; [DPU_V7M3_PIPE] |402|  ; [ORIG 16-BIT INS]
    2008                            ; BRANCHCC OCCURS {||$C$L13||}   ; [] |402| 
    2009                    ;* --------------------------------------------------------------------------*
    2010                            .dwcfi  remember_state
    2011 00000020 2001              MOVS      A1, #1                ; [DPU_V7M3_PIPE] |402|  ; [ORIG 16-BIT INS]
    2012                    $C$DW$101       .dwtag  DW_TAG_TI_branch
    2013                            .dwattr $C$DW$101, DW_AT_low_pc(0x00)
    2014                            .dwattr $C$DW$101, DW_AT_TI_return
    2015                    
    2016 00000022 4770              BX        LR                    ; [DPU_V7M3_PIPE]  ; [ORIG 16-BIT INS]
    2017                            ; BRANCH OCCURS                  ; [] 
    2018                            .dwcfi  restore_state
    2019                    ;* --------------------------------------------------------------------------*
    2020                            .align  8
    2021 00000028           ||$C$L12||:    
    2022 00000028 50C7F3C1          UBFX      A1, A2, #23, #8       ; [DPU_V7M3_PIPE] |402|  ; [KEEP 32-BIT INS]
    2023 0000002c 2800              CMP       A1, #0                ; [DPU_V7M3_PIPE] |402|  ; [ORIG 16-BIT INS]
    2024 0000002e BF18              IT        NE                    ; [DPU_V7M3_PIPE]  ; [ORIG 16-BIT INS]
    2025 00000030 30FFF04F          MOVNE     A1, #-1               ; [DPU_V7M3_PIPE] |402|  ; [KEEP 32-BIT INS]
    2026 00000034 D108              BNE       ||$C$L13||            ; [DPU_V7M3_PIPE] |402|  ; [ORIG 16-BIT INS]
    2027                            ; BRANCHCC OCCURS {||$C$L13||}   ; [] |402| 
    2028                    ;* --------------------------------------------------------------------------*
    2029 00000036 70FFF64F          MOVW      A1, #65535            ; [DPU_V7M3_PIPE] |402|  ; [KEEP 32-BIT INS]
    2030 0000003a 007FF2C0          MOVT      A1, #127              ; [DPU_V7M3_PIPE] |402|  ; [KEEP 32-BIT INS]
    2031 0000003e 4208              TST       A1, A2                ; [DPU_V7M3_PIPE] |402|  ; [ORIG 16-BIT INS]
    2032 00000040 BF14              ITE       NE                    ; [DPU_V7M3_PIPE]  ; [ORIG 16-BIT INS]
    2033 00000042 0001F06F          MVNNE     A1, #1                ; [DPU_V7M3_PIPE] |402|  ; [KEEP 32-BIT INS]
    2034 00000046 2000              MOVEQ     A1, #0                ; [DPU_V7M3_PIPE] |402|  ; [ORIG 16-BIT INS]
    2035                    ;* --------------------------------------------------------------------------*
TI ARM Assembler PC v20.2.5 Mon Nov 29 14:33:27 2021

Copyright (c) 1996-2018 Texas Instruments Incorporated
C:\Users\PSCHAU~1\AppData\Local\Temp\{DCC34CBA-9535-4573-905C-F9C061991809} PAGE   38

    2036                    ||$C$L13||:    
    2037                    $C$DW$102       .dwtag  DW_TAG_TI_branch
    2038                            .dwattr $C$DW$102, DW_AT_low_pc(0x00)
    2039                            .dwattr $C$DW$102, DW_AT_TI_return
    2040                    
    2041 00000048 4770              BX        LR                    ; [DPU_V7M3_PIPE]  ; [ORIG 16-BIT INS]
    2042                            ; BRANCH OCCURS                  ; [] 
    2043                            .dwattr $C$DW$98, DW_AT_TI_end_file("C:/ti/ccs1040/ccs/tools/compiler/ti-cgt-arm_20.2.5.LTS/in
    2044                            .dwattr $C$DW$98, DW_AT_TI_end_line(0x19b)
    2045                            .dwattr $C$DW$98, DW_AT_TI_end_column(0x01)
    2046                            .dwendentry
    2047                            .dwendtag $C$DW$98
    2048                    
    2049 00000000                   .sect   ".text:__fpclassify"
    2050                            .align  8
    2051                            .clink
    2052                            .thumbfunc __fpclassify
    2053 00000000                   .thumb
    2054                            .global __fpclassify
    2055                    
    2056                    $C$DW$103       .dwtag  DW_TAG_subprogram
    2057                            .dwattr $C$DW$103, DW_AT_name("__fpclassify")
    2058                            .dwattr $C$DW$103, DW_AT_low_pc(__fpclassify)
    2059                            .dwattr $C$DW$103, DW_AT_high_pc(0x00)
    2060                            .dwattr $C$DW$103, DW_AT_TI_symbol_name("__fpclassify")
    2061                            .dwattr $C$DW$103, DW_AT_external
    2062                            .dwattr $C$DW$103, DW_AT_type(*$C$DW$T$10)
    2063                            .dwattr $C$DW$103, DW_AT_TI_begin_file("C:/ti/ccs1040/ccs/tools/compiler/ti-cgt-arm_20.2.5.LTS
    2064                            .dwattr $C$DW$103, DW_AT_TI_begin_line(0x19d)
    2065                            .dwattr $C$DW$103, DW_AT_TI_begin_column(0x25)
    2066                            .dwattr $C$DW$103, DW_AT_decl_file("C:/ti/ccs1040/ccs/tools/compiler/ti-cgt-arm_20.2.5.LTS/inc
    2067                            .dwattr $C$DW$103, DW_AT_decl_line(0x19d)
    2068                            .dwattr $C$DW$103, DW_AT_decl_column(0x25)
    2069                            .dwattr $C$DW$103, DW_AT_TI_max_frame_size(0x18)
    2070                            .dwpsn  file "C:/ti/ccs1040/ccs/tools/compiler/ti-cgt-arm_20.2.5.LTS/include/_defs.h",line 414
    2071                    
    2072                            .dwfde $C$DW$CIE, __fpclassify
    2073                    $C$DW$104       .dwtag  DW_TAG_formal_parameter
    2074                            .dwattr $C$DW$104, DW_AT_name("d")
    2075                            .dwattr $C$DW$104, DW_AT_TI_symbol_name("d")
    2076                            .dwattr $C$DW$104, DW_AT_type(*$C$DW$T$17)
    2077                            .dwattr $C$DW$104, DW_AT_location[DW_OP_regx 0x40]
    2078                    
    2079                    
    2080                    ;*****************************************************************************
    2081                    ;* FUNCTION NAME: __fpclassify                                               *
    2082                    ;*                                                                           *
    2083                    ;*   Regs Modified     : A1,A2,A3,A4,V1,V4,V5,V6,V8,V9,SP,LR,SR              *
    2084                    ;*   Regs Used         : A1,A2,A3,A4,V1,V4,V5,V6,V8,V9,SP,LR,SR,D0,D0_hi     *
    2085                    ;*   Local Frame Size  : 0 Args + 0 Auto + 24 Save = 24 byte                 *
    2086                    ;*****************************************************************************
    2087                    __fpclassify:
    2088                    ;* --------------------------------------------------------------------------*
    2089                    ;* V9    assigned to $O$K1
    2090                    ;* LR    assigned to d
TI ARM Assembler PC v20.2.5 Mon Nov 29 14:33:27 2021

Copyright (c) 1996-2018 Texas Instruments Incorporated
C:\Users\PSCHAU~1\AppData\Local\Temp\{DCC34CBA-9535-4573-905C-F9C061991809} PAGE   39

    2091                    $C$DW$105       .dwtag  DW_TAG_variable
    2092                            .dwattr $C$DW$105, DW_AT_name("d")
    2093                            .dwattr $C$DW$105, DW_AT_TI_symbol_name("d")
    2094                            .dwattr $C$DW$105, DW_AT_type(*$C$DW$T$584)
    2095                            .dwattr $C$DW$105, DW_AT_location[DW_OP_reg14 DW_OP_piece 4 DW_OP_reg0 DW_OP_piece 4]
    2096                    
    2097                            .dwcfi  cfa_offset, 0
    2098 00000000 4B90E92D          PUSH      {V1, V4, V5, V6, V8, LR} ; [DPU_V7M3_PIPE]  ; [KEEP 32-BIT INS]
    2099                            .dwcfi  cfa_offset, 24
    2100                            .dwcfi  save_reg_to_mem, 14, -4
    2101                            .dwcfi  save_reg_to_mem, 11, -8
    2102                            .dwcfi  save_reg_to_mem, 9, -12
    2103                            .dwcfi  save_reg_to_mem, 8, -16
    2104                            .dwcfi  save_reg_to_mem, 7, -20
    2105                            .dwcfi  save_reg_to_mem, 4, -24
    2106 00000004 BB10EC5C          VMOV      V8,V9, D0             ; [DPU_MERLIN_PIPE] |414|  ; [KEEP 32-BIT INS]
    2107                            .dwpsn  file "C:/ti/ccs1040/ccs/tools/compiler/ti-cgt-arm_20.2.5.LTS/include/_defs.h",line 419
    2108 00000008 71F0F647          MOV       A2, #32752            ; [DPU_V7M3_PIPE] |419|  ; [KEEP 32-BIT INS]
    2109 0000000c 401CEA01          AND       A1, A2, V9, LSR #16   ; [DPU_V7M3_PIPE] |419|  ; [KEEP 32-BIT INS]
    2110                            .dwpsn  file "C:/ti/ccs1040/ccs/tools/compiler/ti-cgt-arm_20.2.5.LTS/include/_defs.h",line 414
    2111 00000010 46DE              MOV       LR, V8                ; [DPU_V7M3_PIPE] |414|  ; [ORIG 16-BIT INS]
    2112                            .dwpsn  file "C:/ti/ccs1040/ccs/tools/compiler/ti-cgt-arm_20.2.5.LTS/include/_defs.h",line 419
    2113 00000012 4281              CMP       A2, A1                ; [DPU_V7M3_PIPE] |419|  ; [ORIG 16-BIT INS]
    2114 00000014 D118              BNE       ||$C$L14||            ; [DPU_V7M3_PIPE] |419|  ; [ORIG 16-BIT INS]
    2115                            ; BRANCHCC OCCURS {||$C$L14||}   ; [] |419| 
    2116                    ;* --------------------------------------------------------------------------*
    2117 00000016 2000              MOVS      A1, #0                ; [DPU_V7M3_PIPE] |419|  ; [ORIG 16-BIT INS]
    2118 00000018 7BFFF64F          MOVW      V8, #65535            ; [DPU_V7M3_PIPE] |419|  ; [KEEP 32-BIT INS]
    2119 0000001c 4601              MOV       A2, A1                ; [DPU_V7M3_PIPE] |419|  ; [ORIG 16-BIT INS]
    2120 0000001e 030CEA4F          LSL       A4, V9, #0            ; [DPU_V7M3_PIPE] |419|  ; [KEEP 32-BIT INS]
    2121 00000022 39FFF04F          MOV       V6, #-1               ; [DPU_V7M3_PIPE] |419|  ; [KEEP 32-BIT INS]
    2122 00000026 4602              MOV       A3, A1                ; [DPU_V7M3_PIPE] |419|  ; [ORIG 16-BIT INS]
    2123 00000028 0E01EA4E          ORR       LR, LR, A2            ; [DPU_V7M3_PIPE] |419|  ; [KEEP 32-BIT INS]
    2124 0000002c 0B0FF2C0          MOVT      V8, #15               ; [DPU_V7M3_PIPE] |419|  ; [KEEP 32-BIT INS]
    2125 00000030 431A              ORRS      A3, A3, A4            ; [DPU_V7M3_PIPE] |419|  ; [ORIG 16-BIT INS]
    2126 00000032 030EEA09          AND       A4, V6, LR            ; [DPU_V7M3_PIPE] |419|  ; [KEEP 32-BIT INS]
    2127 00000036 0002EA1B          ANDS      A1, V8, A3            ; [DPU_V7M3_PIPE] |419|  ; [KEEP 32-BIT INS]
    2128 0000003a BF0C              ITE       EQ                    ; [DPU_V7M3_PIPE]  ; [ORIG 16-BIT INS]
    2129 0000003c 2B00              CMPEQ     A4, #0                ; [DPU_V7M3_PIPE] |419|  ; [ORIG 16-BIT INS]
    2130 0000003e 2002              MOVNE     A1, #2                ; [DPU_V7M3_PIPE] |419|  ; [ORIG 16-BIT INS]
    2131 00000040 D12E              BNE       ||$C$L15||            ; [DPU_V7M3_PIPE] |419|  ; [ORIG 16-BIT INS]
    2132                            ; BRANCHCC OCCURS {||$C$L15||}   ; [] |419| 
    2133                    ;* --------------------------------------------------------------------------*
    2134                            .dwcfi  remember_state
    2135 00000042 2001              MOVS      A1, #1                ; [DPU_V7M3_PIPE] |419|  ; [ORIG 16-BIT INS]
    2136                    $C$DW$106       .dwtag  DW_TAG_TI_branch
    2137                            .dwattr $C$DW$106, DW_AT_low_pc(0x00)
    2138                            .dwattr $C$DW$106, DW_AT_TI_return
    2139                    
    2140 00000044 8B90E8BD          POP       {V1, V4, V5, V6, V8, PC} ; [DPU_V7M3_PIPE]  ; [KEEP 32-BIT INS]
    2141                            .dwcfi  cfa_offset, 0
    2142                            .dwcfi  restore_reg, 11
    2143                            .dwcfi  restore_reg, 9
    2144                            .dwcfi  restore_reg, 8
    2145                            .dwcfi  restore_reg, 7
TI ARM Assembler PC v20.2.5 Mon Nov 29 14:33:27 2021

Copyright (c) 1996-2018 Texas Instruments Incorporated
C:\Users\PSCHAU~1\AppData\Local\Temp\{DCC34CBA-9535-4573-905C-F9C061991809} PAGE   40

    2146                            .dwcfi  restore_reg, 4
    2147                            ; BRANCH OCCURS                  ; [] 
    2148                            .dwcfi  restore_state
    2149                    ;* --------------------------------------------------------------------------*
    2150                            .align  8
    2151 00000048           ||$C$L14||:    
    2152 00000048 2100              MOVS      A2, #0                ; [DPU_V7M3_PIPE] |419|  ; [ORIG 16-BIT INS]
    2153 0000004a 72FFF240          MOVW      A3, #2047             ; [DPU_V7M3_PIPE] |419|  ; [KEEP 32-BIT INS]
    2154 0000004e 0800F04F          MOV       V5, #0                ; [DPU_V7M3_PIPE] |419|  ; [KEEP 32-BIT INS]
    2155 00000052 501CEA4F          LSR       A1, V9, #20           ; [DPU_V7M3_PIPE] |419|  ; [KEEP 32-BIT INS]
    2156 00000056 150B              ASRS      A4, A2, #20           ; [DPU_V7M3_PIPE] |419|  ; [ORIG 16-BIT INS]
    2157 00000058 030C              LSLS      V1, A2, #12           ; [DPU_V7M3_PIPE] |419|  ; [ORIG 16-BIT INS]
    2158 0000005a 0200F2C0          MOVT      A3, #0                ; [DPU_V7M3_PIPE] |419|  ; [KEEP 32-BIT INS]
    2159 0000005e 0703EA18          ANDS      V4, V5, A4            ; [DPU_V7M3_PIPE] |419|  ; [KEEP 32-BIT INS]
    2160 00000062 0004EA40          ORR       A1, A1, V1            ; [DPU_V7M3_PIPE] |419|  ; [KEEP 32-BIT INS]
    2161 00000066 0200EA02          AND       A3, A3, A1            ; [DPU_V7M3_PIPE] |419|  ; [KEEP 32-BIT INS]
    2162 0000006a BF0C              ITE       EQ                    ; [DPU_V7M3_PIPE]  ; [ORIG 16-BIT INS]
    2163 0000006c 2A00              CMPEQ     A3, #0                ; [DPU_V7M3_PIPE] |419|  ; [ORIG 16-BIT INS]
    2164 0000006e 30FFF04F          MOVNE     A1, #-1               ; [DPU_V7M3_PIPE] |419|  ; [KEEP 32-BIT INS]
    2165 00000072 D115              BNE       ||$C$L15||            ; [DPU_V7M3_PIPE] |419|  ; [ORIG 16-BIT INS]
    2166                            ; BRANCHCC OCCURS {||$C$L15||}   ; [] |419| 
    2167                    ;* --------------------------------------------------------------------------*
    2168 00000074 000CEA4F          LSL       A1, V9, #0            ; [DPU_V7M3_PIPE] |419|  ; [KEEP 32-BIT INS]
    2169 00000078 77FFF64F          MOVW      V4, #65535            ; [DPU_V7M3_PIPE] |419|  ; [KEEP 32-BIT INS]
    2170 0000007c 39FFF04F          MOV       V6, #-1               ; [DPU_V7M3_PIPE] |419|  ; [KEEP 32-BIT INS]
    2171 00000080 0E01EA4E          ORR       LR, LR, A2            ; [DPU_V7M3_PIPE] |419|  ; [KEEP 32-BIT INS]
    2172 00000084 0C00EA41          ORR       V9, A2, A1            ; [DPU_V7M3_PIPE] |419|  ; [KEEP 32-BIT INS]
    2173 00000088 070FF2C0          MOVT      V4, #15               ; [DPU_V7M3_PIPE] |419|  ; [KEEP 32-BIT INS]
    2174 0000008c 090EEA09          AND       V6, V6, LR            ; [DPU_V7M3_PIPE] |419|  ; [KEEP 32-BIT INS]
    2175 00000090 070CEA17          ANDS      V4, V4, V9            ; [DPU_V7M3_PIPE] |419|  ; [KEEP 32-BIT INS]
    2176 00000094 BF0C              ITE       EQ                    ; [DPU_V7M3_PIPE]  ; [ORIG 16-BIT INS]
    2177 00000096 0F00F1B9          CMPEQ     V6, #0                ; [DPU_V7M3_PIPE] |419|  ; [KEEP 32-BIT INS]
    2178 0000009a 0801F06F          MVNNE     V5, #1                ; [DPU_V7M3_PIPE] |419|  ; [KEEP 32-BIT INS]
    2179 0000009e 4640              MOV       A1, V5                ; [DPU_V7M3_PIPE] |419|  ; [ORIG 16-BIT INS]
    2180                    ;* --------------------------------------------------------------------------*
    2181                    ||$C$L15||:    
    2182                    $C$DW$107       .dwtag  DW_TAG_TI_branch
    2183                            .dwattr $C$DW$107, DW_AT_low_pc(0x00)
    2184                            .dwattr $C$DW$107, DW_AT_TI_return
    2185                    
    2186 000000a0 8B90E8BD          POP       {V1, V4, V5, V6, V8, PC} ; [DPU_V7M3_PIPE]  ; [KEEP 32-BIT INS]
    2187                            .dwcfi  cfa_offset, 0
    2188                            .dwcfi  restore_reg, 11
    2189                            .dwcfi  restore_reg, 9
    2190                            .dwcfi  restore_reg, 8
    2191                            .dwcfi  restore_reg, 7
    2192                            .dwcfi  restore_reg, 4
    2193                            ; BRANCH OCCURS                  ; [] 
    2194                            .dwattr $C$DW$103, DW_AT_TI_end_file("C:/ti/ccs1040/ccs/tools/compiler/ti-cgt-arm_20.2.5.LTS/i
    2195                            .dwattr $C$DW$103, DW_AT_TI_end_line(0x1ac)
    2196                            .dwattr $C$DW$103, DW_AT_TI_end_column(0x01)
    2197                            .dwendentry
    2198                            .dwendtag $C$DW$103
    2199                    
    2200                    ;******************************************************************************
TI ARM Assembler PC v20.2.5 Mon Nov 29 14:33:27 2021

Copyright (c) 1996-2018 Texas Instruments Incorporated
C:\Users\PSCHAU~1\AppData\Local\Temp\{DCC34CBA-9535-4573-905C-F9C061991809} PAGE   41

    2201                    ;* STRINGS                                                                    *
    2202                    ;******************************************************************************
    2203 000001d6                   .sect   ".text"
    2204                            .align  4
    2205 000001d8 43        ||$C$SL1||:     .string "Cycles %d",10,0
         000001d9 79       
         000001da 63       
         000001db 6C       
         000001dc 65       
         000001dd 73       
         000001de 20       
         000001df 25       
         000001e0 64       
         000001e1 0A       
         000001e2 00       
    2206                    ;*****************************************************************************
    2207                    ;* UNDEFINED EXTERNAL REFERENCES                                             *
    2208                    ;*****************************************************************************
    2209                            .global xlaudio_adc14_to_f32
    2210                            .global xlaudio_f32_to_dac14
    2211                            .global WDT_A_holdTimer
    2212                            .global xlaudio_measurePerfSample
    2213                            .global printf
    2214                            .global xlaudio_init_intr
    2215                            .global xlaudio_run
    2216                    ;*****************************************************************************
    2217                    ;* SECTION GROUPS                                                            *
    2218                    ;*****************************************************************************
    2219                            .group    "__fpclassify", 1
    2220                            .gmember  ".text:__fpclassify"
    2221                            .endgroup
    2222                            .group    "__fpclassifyf", 1
    2223                            .gmember  ".text:__fpclassifyf"
    2224                            .endgroup
    2225                            .group    "__fpclassifyl", 1
    2226                            .gmember  ".text:__fpclassifyl"
    2227                            .endgroup
    2228                            .group    "__isfinite", 1
    2229                            .gmember  ".text:__isfinite"
    2230                            .endgroup
    2231                            .group    "__isfinitef", 1
    2232                            .gmember  ".text:__isfinitef"
    2233                            .endgroup
    2234                            .group    "__isfinitel", 1
    2235                            .gmember  ".text:__isfinitel"
    2236                            .endgroup
    2237                            .group    "__isinf", 1
    2238                            .gmember  ".text:__isinf"
    2239                            .endgroup
    2240                            .group    "__isinff", 1
    2241                            .gmember  ".text:__isinff"
    2242                            .endgroup
    2243                            .group    "__isinfl", 1
    2244                            .gmember  ".text:__isinfl"
    2245                            .endgroup
TI ARM Assembler PC v20.2.5 Mon Nov 29 14:33:27 2021

Copyright (c) 1996-2018 Texas Instruments Incorporated
C:\Users\PSCHAU~1\AppData\Local\Temp\{DCC34CBA-9535-4573-905C-F9C061991809} PAGE   42

    2246                            .group    "__isnan", 1
    2247                            .gmember  ".text:__isnan"
    2248                            .endgroup
    2249                            .group    "__isnanf", 1
    2250                            .gmember  ".text:__isnanf"
    2251                            .endgroup
    2252                            .group    "__isnanl", 1
    2253                            .gmember  ".text:__isnanl"
    2254                            .endgroup
    2255                            .group    "__isnormal", 1
    2256                            .gmember  ".text:__isnormal"
    2257                            .endgroup
    2258                            .group    "__isnormalf", 1
    2259                            .gmember  ".text:__isnormalf"
    2260                            .endgroup
    2261                            .group    "__isnormall", 1
    2262                            .gmember  ".text:__isnormall"
    2263                            .endgroup
    2264                            .group    "__signbit", 1
    2265                            .gmember  ".text:__signbit"
    2266                            .endgroup
    2267                            .group    "__signbitf", 1
    2268                            .gmember  ".text:__signbitf"
    2269                            .endgroup
    2270                            .group    "__signbitl", 1
    2271                            .gmember  ".text:__signbitl"
    2272                            .endgroup
    2273                    
    2274                    
    2275                    ;******************************************************************************
    2276                    ;* BUILD ATTRIBUTES                                                           *
    2277                    ;******************************************************************************
    2278                            .battr "aeabi", Tag_File, 1, Tag_ABI_PCS_wchar_t(2)
    2279                            .battr "aeabi", Tag_File, 1, Tag_ABI_FP_rounding(0)
    2280                            .battr "aeabi", Tag_File, 1, Tag_ABI_FP_denormal(0)
    2281                            .battr "aeabi", Tag_File, 1, Tag_ABI_FP_exceptions(0)
    2282                            .battr "aeabi", Tag_File, 1, Tag_ABI_FP_number_model(1)
    2283                            .battr "aeabi", Tag_File, 1, Tag_ABI_enum_size(1)
    2284                            .battr "aeabi", Tag_File, 1, Tag_ABI_optimization_goals(2)
    2285                            .battr "aeabi", Tag_File, 1, Tag_ABI_FP_optimization_goals(0)
    2286                            .battr "TI", Tag_File, 1, Tag_Bitfield_layout(0)
    2287                            .battr "TI", Tag_File, 1, Tag_FP_interface(0)
    2288                    
    2289                    ;******************************************************************************
    2290                    ;* TYPE INFORMATION                                                           *
    2291                    ;******************************************************************************
    2292                    
    2293                    $C$DW$T$319     .dwtag  DW_TAG_enumeration_type
    2294                            .dwattr $C$DW$T$319, DW_AT_byte_size(0x01)
    2295                    $C$DW$108       .dwtag  DW_TAG_enumerator
    2296                            .dwattr $C$DW$108, DW_AT_name("FS_8000_HZ")
    2297                            .dwattr $C$DW$108, DW_AT_const_value(0x00)
    2298                            .dwattr $C$DW$108, DW_AT_decl_file("..\xlaudio.h")
    2299                            .dwattr $C$DW$108, DW_AT_decl_line(0x1d)
    2300                            .dwattr $C$DW$108, DW_AT_decl_column(0x05)
TI ARM Assembler PC v20.2.5 Mon Nov 29 14:33:27 2021

Copyright (c) 1996-2018 Texas Instruments Incorporated
C:\Users\PSCHAU~1\AppData\Local\Temp\{DCC34CBA-9535-4573-905C-F9C061991809} PAGE   43

    2301                    
    2302                    $C$DW$109       .dwtag  DW_TAG_enumerator
    2303                            .dwattr $C$DW$109, DW_AT_name("FS_11025_HZ")
    2304                            .dwattr $C$DW$109, DW_AT_const_value(0x01)
    2305                            .dwattr $C$DW$109, DW_AT_decl_file("..\xlaudio.h")
    2306                            .dwattr $C$DW$109, DW_AT_decl_line(0x1e)
    2307                            .dwattr $C$DW$109, DW_AT_decl_column(0x05)
    2308                    
    2309                    $C$DW$110       .dwtag  DW_TAG_enumerator
    2310                            .dwattr $C$DW$110, DW_AT_name("FS_16000_HZ")
    2311                            .dwattr $C$DW$110, DW_AT_const_value(0x02)
    2312                            .dwattr $C$DW$110, DW_AT_decl_file("..\xlaudio.h")
    2313                            .dwattr $C$DW$110, DW_AT_decl_line(0x1f)
    2314                            .dwattr $C$DW$110, DW_AT_decl_column(0x05)
    2315                    
    2316                    $C$DW$111       .dwtag  DW_TAG_enumerator
    2317                            .dwattr $C$DW$111, DW_AT_name("FS_22050_HZ")
    2318                            .dwattr $C$DW$111, DW_AT_const_value(0x03)
    2319                            .dwattr $C$DW$111, DW_AT_decl_file("..\xlaudio.h")
    2320                            .dwattr $C$DW$111, DW_AT_decl_line(0x20)
    2321                            .dwattr $C$DW$111, DW_AT_decl_column(0x05)
    2322                    
    2323                    $C$DW$112       .dwtag  DW_TAG_enumerator
    2324                            .dwattr $C$DW$112, DW_AT_name("FS_24000_HZ")
    2325                            .dwattr $C$DW$112, DW_AT_const_value(0x04)
    2326                            .dwattr $C$DW$112, DW_AT_decl_file("..\xlaudio.h")
    2327                            .dwattr $C$DW$112, DW_AT_decl_line(0x21)
    2328                            .dwattr $C$DW$112, DW_AT_decl_column(0x05)
    2329                    
    2330                    $C$DW$113       .dwtag  DW_TAG_enumerator
    2331                            .dwattr $C$DW$113, DW_AT_name("FS_32000_HZ")
    2332                            .dwattr $C$DW$113, DW_AT_const_value(0x05)
    2333                            .dwattr $C$DW$113, DW_AT_decl_file("..\xlaudio.h")
    2334                            .dwattr $C$DW$113, DW_AT_decl_line(0x22)
    2335                            .dwattr $C$DW$113, DW_AT_decl_column(0x05)
    2336                    
    2337                    $C$DW$114       .dwtag  DW_TAG_enumerator
    2338                            .dwattr $C$DW$114, DW_AT_name("FS_44100_HZ")
    2339                            .dwattr $C$DW$114, DW_AT_const_value(0x06)
    2340                            .dwattr $C$DW$114, DW_AT_decl_file("..\xlaudio.h")
    2341                            .dwattr $C$DW$114, DW_AT_decl_line(0x23)
    2342                            .dwattr $C$DW$114, DW_AT_decl_column(0x05)
    2343                    
    2344                    $C$DW$115       .dwtag  DW_TAG_enumerator
    2345                            .dwattr $C$DW$115, DW_AT_name("FS_48000_HZ")
    2346                            .dwattr $C$DW$115, DW_AT_const_value(0x07)
    2347                            .dwattr $C$DW$115, DW_AT_decl_file("..\xlaudio.h")
    2348                            .dwattr $C$DW$115, DW_AT_decl_line(0x24)
    2349                            .dwattr $C$DW$115, DW_AT_decl_column(0x05)
    2350                    
    2351                            .dwattr $C$DW$T$319, DW_AT_decl_file("..\xlaudio.h")
    2352                            .dwattr $C$DW$T$319, DW_AT_decl_line(0x1c)
    2353                            .dwattr $C$DW$T$319, DW_AT_decl_column(0x0e)
    2354                            .dwendtag $C$DW$T$319
    2355                    
TI ARM Assembler PC v20.2.5 Mon Nov 29 14:33:27 2021

Copyright (c) 1996-2018 Texas Instruments Incorporated
C:\Users\PSCHAU~1\AppData\Local\Temp\{DCC34CBA-9535-4573-905C-F9C061991809} PAGE   44

    2356                    $C$DW$T$320     .dwtag  DW_TAG_typedef
    2357                            .dwattr $C$DW$T$320, DW_AT_name("fs_enum_t")
    2358                            .dwattr $C$DW$T$320, DW_AT_type(*$C$DW$T$319)
    2359                            .dwattr $C$DW$T$320, DW_AT_language(DW_LANG_C)
    2360                            .dwattr $C$DW$T$320, DW_AT_decl_file("..\xlaudio.h")
    2361                            .dwattr $C$DW$T$320, DW_AT_decl_line(0x25)
    2362                            .dwattr $C$DW$T$320, DW_AT_decl_column(0x03)
    2363                    
    2364                    
    2365                    $C$DW$T$321     .dwtag  DW_TAG_enumeration_type
    2366                            .dwattr $C$DW$T$321, DW_AT_byte_size(0x01)
    2367                    $C$DW$116       .dwtag  DW_TAG_enumerator
    2368                            .dwattr $C$DW$116, DW_AT_name("XLAUDIO_MIC_IN")
    2369                            .dwattr $C$DW$116, DW_AT_const_value(0x00)
    2370                            .dwattr $C$DW$116, DW_AT_decl_file("..\xlaudio.h")
    2371                            .dwattr $C$DW$116, DW_AT_decl_line(0x28)
    2372                            .dwattr $C$DW$116, DW_AT_decl_column(0x05)
    2373                    
    2374                    $C$DW$117       .dwtag  DW_TAG_enumerator
    2375                            .dwattr $C$DW$117, DW_AT_name("XLAUDIO_J1_2_IN")
    2376                            .dwattr $C$DW$117, DW_AT_const_value(0x01)
    2377                            .dwattr $C$DW$117, DW_AT_decl_file("..\xlaudio.h")
    2378                            .dwattr $C$DW$117, DW_AT_decl_line(0x29)
    2379                            .dwattr $C$DW$117, DW_AT_decl_column(0x05)
    2380                    
    2381                            .dwattr $C$DW$T$321, DW_AT_decl_file("..\xlaudio.h")
    2382                            .dwattr $C$DW$T$321, DW_AT_decl_line(0x27)
    2383                            .dwattr $C$DW$T$321, DW_AT_decl_column(0x0e)
    2384                            .dwendtag $C$DW$T$321
    2385                    
    2386                    $C$DW$T$322     .dwtag  DW_TAG_typedef
    2387                            .dwattr $C$DW$T$322, DW_AT_name("xlaudio_in_enum_t")
    2388                            .dwattr $C$DW$T$322, DW_AT_type(*$C$DW$T$321)
    2389                            .dwattr $C$DW$T$322, DW_AT_language(DW_LANG_C)
    2390                            .dwattr $C$DW$T$322, DW_AT_decl_file("..\xlaudio.h")
    2391                            .dwattr $C$DW$T$322, DW_AT_decl_line(0x2a)
    2392                            .dwattr $C$DW$T$322, DW_AT_decl_column(0x03)
    2393                    
    2394                    
    2395                    $C$DW$T$323     .dwtag  DW_TAG_enumeration_type
    2396                            .dwattr $C$DW$T$323, DW_AT_byte_size(0x01)
    2397                    $C$DW$118       .dwtag  DW_TAG_enumerator
    2398                            .dwattr $C$DW$118, DW_AT_name("ARM_MATH_SUCCESS")
    2399                            .dwattr $C$DW$118, DW_AT_const_value(0x00)
    2400                            .dwattr $C$DW$118, DW_AT_decl_file("C:/ti/simplelink_msp432p4_sdk_3_40_01_02/source/third_part
    2401                            .dwattr $C$DW$118, DW_AT_decl_line(0x185)
    2402                            .dwattr $C$DW$118, DW_AT_decl_column(0x05)
    2403                    
    2404                    $C$DW$119       .dwtag  DW_TAG_enumerator
    2405                            .dwattr $C$DW$119, DW_AT_name("ARM_MATH_ARGUMENT_ERROR")
    2406                            .dwattr $C$DW$119, DW_AT_const_value(-1)
    2407                            .dwattr $C$DW$119, DW_AT_decl_file("C:/ti/simplelink_msp432p4_sdk_3_40_01_02/source/third_part
    2408                            .dwattr $C$DW$119, DW_AT_decl_line(0x186)
    2409                            .dwattr $C$DW$119, DW_AT_decl_column(0x05)
    2410                    
TI ARM Assembler PC v20.2.5 Mon Nov 29 14:33:27 2021

Copyright (c) 1996-2018 Texas Instruments Incorporated
C:\Users\PSCHAU~1\AppData\Local\Temp\{DCC34CBA-9535-4573-905C-F9C061991809} PAGE   45

    2411                    $C$DW$120       .dwtag  DW_TAG_enumerator
    2412                            .dwattr $C$DW$120, DW_AT_name("ARM_MATH_LENGTH_ERROR")
    2413                            .dwattr $C$DW$120, DW_AT_const_value(-2)
    2414                            .dwattr $C$DW$120, DW_AT_decl_file("C:/ti/simplelink_msp432p4_sdk_3_40_01_02/source/third_part
    2415                            .dwattr $C$DW$120, DW_AT_decl_line(0x187)
    2416                            .dwattr $C$DW$120, DW_AT_decl_column(0x05)
    2417                    
    2418                    $C$DW$121       .dwtag  DW_TAG_enumerator
    2419                            .dwattr $C$DW$121, DW_AT_name("ARM_MATH_SIZE_MISMATCH")
    2420                            .dwattr $C$DW$121, DW_AT_const_value(-3)
    2421                            .dwattr $C$DW$121, DW_AT_decl_file("C:/ti/simplelink_msp432p4_sdk_3_40_01_02/source/third_part
    2422                            .dwattr $C$DW$121, DW_AT_decl_line(0x188)
    2423                            .dwattr $C$DW$121, DW_AT_decl_column(0x05)
    2424                    
    2425                    $C$DW$122       .dwtag  DW_TAG_enumerator
    2426                            .dwattr $C$DW$122, DW_AT_name("ARM_MATH_NANINF")
    2427                            .dwattr $C$DW$122, DW_AT_const_value(-4)
    2428                            .dwattr $C$DW$122, DW_AT_decl_file("C:/ti/simplelink_msp432p4_sdk_3_40_01_02/source/third_part
    2429                            .dwattr $C$DW$122, DW_AT_decl_line(0x189)
    2430                            .dwattr $C$DW$122, DW_AT_decl_column(0x05)
    2431                    
    2432                    $C$DW$123       .dwtag  DW_TAG_enumerator
    2433                            .dwattr $C$DW$123, DW_AT_name("ARM_MATH_SINGULAR")
    2434                            .dwattr $C$DW$123, DW_AT_const_value(-5)
    2435                            .dwattr $C$DW$123, DW_AT_decl_file("C:/ti/simplelink_msp432p4_sdk_3_40_01_02/source/third_part
    2436                            .dwattr $C$DW$123, DW_AT_decl_line(0x18a)
    2437                            .dwattr $C$DW$123, DW_AT_decl_column(0x05)
    2438                    
    2439                    $C$DW$124       .dwtag  DW_TAG_enumerator
    2440                            .dwattr $C$DW$124, DW_AT_name("ARM_MATH_TEST_FAILURE")
    2441                            .dwattr $C$DW$124, DW_AT_const_value(-6)
    2442                            .dwattr $C$DW$124, DW_AT_decl_file("C:/ti/simplelink_msp432p4_sdk_3_40_01_02/source/third_part
    2443                            .dwattr $C$DW$124, DW_AT_decl_line(0x18b)
    2444                            .dwattr $C$DW$124, DW_AT_decl_column(0x05)
    2445                    
    2446                            .dwattr $C$DW$T$323, DW_AT_decl_file("C:/ti/simplelink_msp432p4_sdk_3_40_01_02/source/third_pa
    2447                            .dwattr $C$DW$T$323, DW_AT_decl_line(0x184)
    2448                            .dwattr $C$DW$T$323, DW_AT_decl_column(0x03)
    2449                            .dwendtag $C$DW$T$323
    2450                    
    2451                    $C$DW$T$324     .dwtag  DW_TAG_typedef
    2452                            .dwattr $C$DW$T$324, DW_AT_name("arm_status")
    2453                            .dwattr $C$DW$T$324, DW_AT_type(*$C$DW$T$323)
    2454                            .dwattr $C$DW$T$324, DW_AT_language(DW_LANG_C)
    2455                            .dwattr $C$DW$T$324, DW_AT_decl_file("C:/ti/simplelink_msp432p4_sdk_3_40_01_02/source/third_pa
    2456                            .dwattr $C$DW$T$324, DW_AT_decl_line(0x18c)
    2457                            .dwattr $C$DW$T$324, DW_AT_decl_column(0x05)
    2458                    
    2459                    
    2460                    $C$DW$T$325     .dwtag  DW_TAG_enumeration_type
    2461                            .dwattr $C$DW$T$325, DW_AT_byte_size(0x01)
    2462                    $C$DW$125       .dwtag  DW_TAG_enumerator
    2463                            .dwattr $C$DW$125, DW_AT_name("BUFLEN_8")
    2464                            .dwattr $C$DW$125, DW_AT_const_value(0x00)
    2465                            .dwattr $C$DW$125, DW_AT_decl_file("..\xlaudio.h")
TI ARM Assembler PC v20.2.5 Mon Nov 29 14:33:27 2021

Copyright (c) 1996-2018 Texas Instruments Incorporated
C:\Users\PSCHAU~1\AppData\Local\Temp\{DCC34CBA-9535-4573-905C-F9C061991809} PAGE   46

    2466                            .dwattr $C$DW$125, DW_AT_decl_line(0x2d)
    2467                            .dwattr $C$DW$125, DW_AT_decl_column(0x05)
    2468                    
    2469                    $C$DW$126       .dwtag  DW_TAG_enumerator
    2470                            .dwattr $C$DW$126, DW_AT_name("BUFLEN_16")
    2471                            .dwattr $C$DW$126, DW_AT_const_value(0x01)
    2472                            .dwattr $C$DW$126, DW_AT_decl_file("..\xlaudio.h")
    2473                            .dwattr $C$DW$126, DW_AT_decl_line(0x2e)
    2474                            .dwattr $C$DW$126, DW_AT_decl_column(0x05)
    2475                    
    2476                    $C$DW$127       .dwtag  DW_TAG_enumerator
    2477                            .dwattr $C$DW$127, DW_AT_name("BUFLEN_32")
    2478                            .dwattr $C$DW$127, DW_AT_const_value(0x02)
    2479                            .dwattr $C$DW$127, DW_AT_decl_file("..\xlaudio.h")
    2480                            .dwattr $C$DW$127, DW_AT_decl_line(0x2f)
    2481                            .dwattr $C$DW$127, DW_AT_decl_column(0x05)
    2482                    
    2483                    $C$DW$128       .dwtag  DW_TAG_enumerator
    2484                            .dwattr $C$DW$128, DW_AT_name("BUFLEN_64")
    2485                            .dwattr $C$DW$128, DW_AT_const_value(0x03)
    2486                            .dwattr $C$DW$128, DW_AT_decl_file("..\xlaudio.h")
    2487                            .dwattr $C$DW$128, DW_AT_decl_line(0x30)
    2488                            .dwattr $C$DW$128, DW_AT_decl_column(0x05)
    2489                    
    2490                    $C$DW$129       .dwtag  DW_TAG_enumerator
    2491                            .dwattr $C$DW$129, DW_AT_name("BUFLEN_128")
    2492                            .dwattr $C$DW$129, DW_AT_const_value(0x04)
    2493                            .dwattr $C$DW$129, DW_AT_decl_file("..\xlaudio.h")
    2494                            .dwattr $C$DW$129, DW_AT_decl_line(0x31)
    2495                            .dwattr $C$DW$129, DW_AT_decl_column(0x05)
    2496                    
    2497                            .dwattr $C$DW$T$325, DW_AT_decl_file("..\xlaudio.h")
    2498                            .dwattr $C$DW$T$325, DW_AT_decl_line(0x2c)
    2499                            .dwattr $C$DW$T$325, DW_AT_decl_column(0x0e)
    2500                            .dwendtag $C$DW$T$325
    2501                    
    2502                    $C$DW$T$326     .dwtag  DW_TAG_typedef
    2503                            .dwattr $C$DW$T$326, DW_AT_name("buflen_enum_t")
    2504                            .dwattr $C$DW$T$326, DW_AT_type(*$C$DW$T$325)
    2505                            .dwattr $C$DW$T$326, DW_AT_language(DW_LANG_C)
    2506                            .dwattr $C$DW$T$326, DW_AT_decl_file("..\xlaudio.h")
    2507                            .dwattr $C$DW$T$326, DW_AT_decl_line(0x32)
    2508                            .dwattr $C$DW$T$326, DW_AT_decl_column(0x03)
    2509                    
    2510                    
    2511                    $C$DW$T$22      .dwtag  DW_TAG_structure_type
    2512                            .dwattr $C$DW$T$22, DW_AT_byte_size(0x08)
    2513                    $C$DW$130       .dwtag  DW_TAG_member
    2514                            .dwattr $C$DW$130, DW_AT_type(*$C$DW$T$10)
    2515                            .dwattr $C$DW$130, DW_AT_name("quot")
    2516                            .dwattr $C$DW$130, DW_AT_TI_symbol_name("quot")
    2517                            .dwattr $C$DW$130, DW_AT_data_member_location[DW_OP_plus_uconst 0x0]
    2518                            .dwattr $C$DW$130, DW_AT_accessibility(DW_ACCESS_public)
    2519                            .dwattr $C$DW$130, DW_AT_decl_file("C:/ti/ccs1040/ccs/tools/compiler/ti-cgt-arm_20.2.5.LTS/inc
    2520                            .dwattr $C$DW$130, DW_AT_decl_line(0x4e)
TI ARM Assembler PC v20.2.5 Mon Nov 29 14:33:27 2021

Copyright (c) 1996-2018 Texas Instruments Incorporated
C:\Users\PSCHAU~1\AppData\Local\Temp\{DCC34CBA-9535-4573-905C-F9C061991809} PAGE   47

    2521                            .dwattr $C$DW$130, DW_AT_decl_column(0x16)
    2522                    
    2523                    $C$DW$131       .dwtag  DW_TAG_member
    2524                            .dwattr $C$DW$131, DW_AT_type(*$C$DW$T$10)
    2525                            .dwattr $C$DW$131, DW_AT_name("rem")
    2526                            .dwattr $C$DW$131, DW_AT_TI_symbol_name("rem")
    2527                            .dwattr $C$DW$131, DW_AT_data_member_location[DW_OP_plus_uconst 0x4]
    2528                            .dwattr $C$DW$131, DW_AT_accessibility(DW_ACCESS_public)
    2529                            .dwattr $C$DW$131, DW_AT_decl_file("C:/ti/ccs1040/ccs/tools/compiler/ti-cgt-arm_20.2.5.LTS/inc
    2530                            .dwattr $C$DW$131, DW_AT_decl_line(0x4e)
    2531                            .dwattr $C$DW$131, DW_AT_decl_column(0x1c)
    2532                    
    2533                            .dwattr $C$DW$T$22, DW_AT_decl_file("C:/ti/ccs1040/ccs/tools/compiler/ti-cgt-arm_20.2.5.LTS/in
    2534                            .dwattr $C$DW$T$22, DW_AT_decl_line(0x4e)
    2535                            .dwattr $C$DW$T$22, DW_AT_decl_column(0x10)
    2536                            .dwendtag $C$DW$T$22
    2537                    
    2538                    $C$DW$T$327     .dwtag  DW_TAG_typedef
    2539                            .dwattr $C$DW$T$327, DW_AT_name("div_t")
    2540                            .dwattr $C$DW$T$327, DW_AT_type(*$C$DW$T$22)
    2541                            .dwattr $C$DW$T$327, DW_AT_language(DW_LANG_C)
    2542                            .dwattr $C$DW$T$327, DW_AT_decl_file("C:/ti/ccs1040/ccs/tools/compiler/ti-cgt-arm_20.2.5.LTS/i
    2543                            .dwattr $C$DW$T$327, DW_AT_decl_line(0x4e)
    2544                            .dwattr $C$DW$T$327, DW_AT_decl_column(0x23)
    2545                    
    2546                    
    2547                    $C$DW$T$23      .dwtag  DW_TAG_structure_type
    2548                            .dwattr $C$DW$T$23, DW_AT_byte_size(0x08)
    2549                    $C$DW$132       .dwtag  DW_TAG_member
    2550                            .dwattr $C$DW$132, DW_AT_type(*$C$DW$T$10)
    2551                            .dwattr $C$DW$132, DW_AT_name("quot")
    2552                            .dwattr $C$DW$132, DW_AT_TI_symbol_name("quot")
    2553                            .dwattr $C$DW$132, DW_AT_data_member_location[DW_OP_plus_uconst 0x0]
    2554                            .dwattr $C$DW$132, DW_AT_accessibility(DW_ACCESS_public)
    2555                            .dwattr $C$DW$132, DW_AT_decl_file("C:/ti/ccs1040/ccs/tools/compiler/ti-cgt-arm_20.2.5.LTS/inc
    2556                            .dwattr $C$DW$132, DW_AT_decl_line(0x53)
    2557                            .dwattr $C$DW$132, DW_AT_decl_column(0x16)
    2558                    
    2559                    $C$DW$133       .dwtag  DW_TAG_member
    2560                            .dwattr $C$DW$133, DW_AT_type(*$C$DW$T$10)
    2561                            .dwattr $C$DW$133, DW_AT_name("rem")
    2562                            .dwattr $C$DW$133, DW_AT_TI_symbol_name("rem")
    2563                            .dwattr $C$DW$133, DW_AT_data_member_location[DW_OP_plus_uconst 0x4]
    2564                            .dwattr $C$DW$133, DW_AT_accessibility(DW_ACCESS_public)
    2565                            .dwattr $C$DW$133, DW_AT_decl_file("C:/ti/ccs1040/ccs/tools/compiler/ti-cgt-arm_20.2.5.LTS/inc
    2566                            .dwattr $C$DW$133, DW_AT_decl_line(0x53)
    2567                            .dwattr $C$DW$133, DW_AT_decl_column(0x1c)
    2568                    
    2569                            .dwattr $C$DW$T$23, DW_AT_decl_file("C:/ti/ccs1040/ccs/tools/compiler/ti-cgt-arm_20.2.5.LTS/in
    2570                            .dwattr $C$DW$T$23, DW_AT_decl_line(0x53)
    2571                            .dwattr $C$DW$T$23, DW_AT_decl_column(0x10)
    2572                            .dwendtag $C$DW$T$23
    2573                    
    2574                    $C$DW$T$328     .dwtag  DW_TAG_typedef
    2575                            .dwattr $C$DW$T$328, DW_AT_name("ldiv_t")
TI ARM Assembler PC v20.2.5 Mon Nov 29 14:33:27 2021

Copyright (c) 1996-2018 Texas Instruments Incorporated
C:\Users\PSCHAU~1\AppData\Local\Temp\{DCC34CBA-9535-4573-905C-F9C061991809} PAGE   48

    2576                            .dwattr $C$DW$T$328, DW_AT_type(*$C$DW$T$23)
    2577                            .dwattr $C$DW$T$328, DW_AT_language(DW_LANG_C)
    2578                            .dwattr $C$DW$T$328, DW_AT_decl_file("C:/ti/ccs1040/ccs/tools/compiler/ti-cgt-arm_20.2.5.LTS/i
    2579                            .dwattr $C$DW$T$328, DW_AT_decl_line(0x53)
    2580                            .dwattr $C$DW$T$328, DW_AT_decl_column(0x23)
    2581                    
    2582                    
    2583                    $C$DW$T$24      .dwtag  DW_TAG_structure_type
    2584                            .dwattr $C$DW$T$24, DW_AT_byte_size(0x10)
    2585                    $C$DW$134       .dwtag  DW_TAG_member
    2586                            .dwattr $C$DW$134, DW_AT_type(*$C$DW$T$14)
    2587                            .dwattr $C$DW$134, DW_AT_name("quot")
    2588                            .dwattr $C$DW$134, DW_AT_TI_symbol_name("quot")
    2589                            .dwattr $C$DW$134, DW_AT_data_member_location[DW_OP_plus_uconst 0x0]
    2590                            .dwattr $C$DW$134, DW_AT_accessibility(DW_ACCESS_public)
    2591                            .dwattr $C$DW$134, DW_AT_decl_file("C:/ti/ccs1040/ccs/tools/compiler/ti-cgt-arm_20.2.5.LTS/inc
    2592                            .dwattr $C$DW$134, DW_AT_decl_line(0x5b)
    2593                            .dwattr $C$DW$134, DW_AT_decl_column(0x1c)
    2594                    
    2595                    $C$DW$135       .dwtag  DW_TAG_member
    2596                            .dwattr $C$DW$135, DW_AT_type(*$C$DW$T$14)
    2597                            .dwattr $C$DW$135, DW_AT_name("rem")
    2598                            .dwattr $C$DW$135, DW_AT_TI_symbol_name("rem")
    2599                            .dwattr $C$DW$135, DW_AT_data_member_location[DW_OP_plus_uconst 0x8]
    2600                            .dwattr $C$DW$135, DW_AT_accessibility(DW_ACCESS_public)
    2601                            .dwattr $C$DW$135, DW_AT_decl_file("C:/ti/ccs1040/ccs/tools/compiler/ti-cgt-arm_20.2.5.LTS/inc
    2602                            .dwattr $C$DW$135, DW_AT_decl_line(0x5b)
    2603                            .dwattr $C$DW$135, DW_AT_decl_column(0x22)
    2604                    
    2605                            .dwattr $C$DW$T$24, DW_AT_decl_file("C:/ti/ccs1040/ccs/tools/compiler/ti-cgt-arm_20.2.5.LTS/in
    2606                            .dwattr $C$DW$T$24, DW_AT_decl_line(0x5b)
    2607                            .dwattr $C$DW$T$24, DW_AT_decl_column(0x10)
    2608                            .dwendtag $C$DW$T$24
    2609                    
    2610                    $C$DW$T$329     .dwtag  DW_TAG_typedef
    2611                            .dwattr $C$DW$T$329, DW_AT_name("lldiv_t")
    2612                            .dwattr $C$DW$T$329, DW_AT_type(*$C$DW$T$24)
    2613                            .dwattr $C$DW$T$329, DW_AT_language(DW_LANG_C)
    2614                            .dwattr $C$DW$T$329, DW_AT_decl_file("C:/ti/ccs1040/ccs/tools/compiler/ti-cgt-arm_20.2.5.LTS/i
    2615                            .dwattr $C$DW$T$329, DW_AT_decl_line(0x5b)
    2616                            .dwattr $C$DW$T$329, DW_AT_decl_column(0x29)
    2617                    
    2618                    
    2619                    $C$DW$T$25      .dwtag  DW_TAG_structure_type
    2620                            .dwattr $C$DW$T$25, DW_AT_byte_size(0x10)
    2621                    $C$DW$136       .dwtag  DW_TAG_member
    2622                            .dwattr $C$DW$136, DW_AT_type(*$C$DW$T$14)
    2623                            .dwattr $C$DW$136, DW_AT_name("__max_align1")
    2624                            .dwattr $C$DW$136, DW_AT_TI_symbol_name("__max_align1")
    2625                            .dwattr $C$DW$136, DW_AT_data_member_location[DW_OP_plus_uconst 0x0]
    2626                            .dwattr $C$DW$136, DW_AT_accessibility(DW_ACCESS_public)
    2627                            .dwattr $C$DW$136, DW_AT_decl_file("C:/ti/ccs1040/ccs/tools/compiler/ti-cgt-arm_20.2.5.LTS/inc
    2628                            .dwattr $C$DW$136, DW_AT_decl_line(0x7b)
    2629                            .dwattr $C$DW$136, DW_AT_decl_column(0x0c)
    2630                    
TI ARM Assembler PC v20.2.5 Mon Nov 29 14:33:27 2021

Copyright (c) 1996-2018 Texas Instruments Incorporated
C:\Users\PSCHAU~1\AppData\Local\Temp\{DCC34CBA-9535-4573-905C-F9C061991809} PAGE   49

    2631                    $C$DW$137       .dwtag  DW_TAG_member
    2632                            .dwattr $C$DW$137, DW_AT_type(*$C$DW$T$18)
    2633                            .dwattr $C$DW$137, DW_AT_name("__max_align2")
    2634                            .dwattr $C$DW$137, DW_AT_TI_symbol_name("__max_align2")
    2635                            .dwattr $C$DW$137, DW_AT_data_member_location[DW_OP_plus_uconst 0x8]
    2636                            .dwattr $C$DW$137, DW_AT_accessibility(DW_ACCESS_public)
    2637                            .dwattr $C$DW$137, DW_AT_decl_file("C:/ti/ccs1040/ccs/tools/compiler/ti-cgt-arm_20.2.5.LTS/inc
    2638                            .dwattr $C$DW$137, DW_AT_decl_line(0x7c)
    2639                            .dwattr $C$DW$137, DW_AT_decl_column(0x0e)
    2640                    
    2641                            .dwattr $C$DW$T$25, DW_AT_decl_file("C:/ti/ccs1040/ccs/tools/compiler/ti-cgt-arm_20.2.5.LTS/in
    2642                            .dwattr $C$DW$T$25, DW_AT_decl_line(0x7a)
    2643                            .dwattr $C$DW$T$25, DW_AT_decl_column(0x10)
    2644                            .dwendtag $C$DW$T$25
    2645                    
    2646                    $C$DW$T$330     .dwtag  DW_TAG_typedef
    2647                            .dwattr $C$DW$T$330, DW_AT_name("__max_align_t")
    2648                            .dwattr $C$DW$T$330, DW_AT_type(*$C$DW$T$25)
    2649                            .dwattr $C$DW$T$330, DW_AT_language(DW_LANG_C)
    2650                            .dwattr $C$DW$T$330, DW_AT_decl_file("C:/ti/ccs1040/ccs/tools/compiler/ti-cgt-arm_20.2.5.LTS/i
    2651                            .dwattr $C$DW$T$330, DW_AT_decl_line(0x7d)
    2652                            .dwattr $C$DW$T$330, DW_AT_decl_column(0x03)
    2653                    
    2654                    
    2655                    $C$DW$T$28      .dwtag  DW_TAG_structure_type
    2656                            .dwattr $C$DW$T$28, DW_AT_byte_size(0x04)
    2657                    $C$DW$138       .dwtag  DW_TAG_member
    2658                            .dwattr $C$DW$138, DW_AT_type(*$C$DW$T$27)
    2659                            .dwattr $C$DW$138, DW_AT_name("_reserved0")
    2660                            .dwattr $C$DW$138, DW_AT_TI_symbol_name("_reserved0")
    2661                            .dwattr $C$DW$138, DW_AT_bit_offset(0x10)
    2662                            .dwattr $C$DW$138, DW_AT_bit_size(0x10)
    2663                            .dwattr $C$DW$138, DW_AT_data_member_location[DW_OP_plus_uconst 0x0]
    2664                            .dwattr $C$DW$138, DW_AT_accessibility(DW_ACCESS_public)
    2665                            .dwattr $C$DW$138, DW_AT_decl_file("C:/ti/ccs1040/ccs/ccs_base/arm/include/CMSIS/core_cm4.h")
    2666                            .dwattr $C$DW$138, DW_AT_decl_line(0x105)
    2667                            .dwattr $C$DW$138, DW_AT_decl_column(0x0e)
    2668                    
    2669                    $C$DW$139       .dwtag  DW_TAG_member
    2670                            .dwattr $C$DW$139, DW_AT_type(*$C$DW$T$27)
    2671                            .dwattr $C$DW$139, DW_AT_name("GE")
    2672                            .dwattr $C$DW$139, DW_AT_TI_symbol_name("GE")
    2673                            .dwattr $C$DW$139, DW_AT_bit_offset(0x0c)
    2674                            .dwattr $C$DW$139, DW_AT_bit_size(0x04)
    2675                            .dwattr $C$DW$139, DW_AT_data_member_location[DW_OP_plus_uconst 0x0]
    2676                            .dwattr $C$DW$139, DW_AT_accessibility(DW_ACCESS_public)
    2677                            .dwattr $C$DW$139, DW_AT_decl_file("C:/ti/ccs1040/ccs/ccs_base/arm/include/CMSIS/core_cm4.h")
    2678                            .dwattr $C$DW$139, DW_AT_decl_line(0x106)
    2679                            .dwattr $C$DW$139, DW_AT_decl_column(0x0e)
    2680                    
    2681                    $C$DW$140       .dwtag  DW_TAG_member
    2682                            .dwattr $C$DW$140, DW_AT_type(*$C$DW$T$27)
    2683                            .dwattr $C$DW$140, DW_AT_name("_reserved1")
    2684                            .dwattr $C$DW$140, DW_AT_TI_symbol_name("_reserved1")
    2685                            .dwattr $C$DW$140, DW_AT_bit_offset(0x05)
TI ARM Assembler PC v20.2.5 Mon Nov 29 14:33:27 2021

Copyright (c) 1996-2018 Texas Instruments Incorporated
C:\Users\PSCHAU~1\AppData\Local\Temp\{DCC34CBA-9535-4573-905C-F9C061991809} PAGE   50

    2686                            .dwattr $C$DW$140, DW_AT_bit_size(0x07)
    2687                            .dwattr $C$DW$140, DW_AT_data_member_location[DW_OP_plus_uconst 0x0]
    2688                            .dwattr $C$DW$140, DW_AT_accessibility(DW_ACCESS_public)
    2689                            .dwattr $C$DW$140, DW_AT_decl_file("C:/ti/ccs1040/ccs/ccs_base/arm/include/CMSIS/core_cm4.h")
    2690                            .dwattr $C$DW$140, DW_AT_decl_line(0x107)
    2691                            .dwattr $C$DW$140, DW_AT_decl_column(0x0e)
    2692                    
    2693                    $C$DW$141       .dwtag  DW_TAG_member
    2694                            .dwattr $C$DW$141, DW_AT_type(*$C$DW$T$27)
    2695                            .dwattr $C$DW$141, DW_AT_name("Q")
    2696                            .dwattr $C$DW$141, DW_AT_TI_symbol_name("Q")
    2697                            .dwattr $C$DW$141, DW_AT_bit_offset(0x04)
    2698                            .dwattr $C$DW$141, DW_AT_bit_size(0x01)
    2699                            .dwattr $C$DW$141, DW_AT_data_member_location[DW_OP_plus_uconst 0x0]
    2700                            .dwattr $C$DW$141, DW_AT_accessibility(DW_ACCESS_public)
    2701                            .dwattr $C$DW$141, DW_AT_decl_file("C:/ti/ccs1040/ccs/ccs_base/arm/include/CMSIS/core_cm4.h")
    2702                            .dwattr $C$DW$141, DW_AT_decl_line(0x108)
    2703                            .dwattr $C$DW$141, DW_AT_decl_column(0x0e)
    2704                    
    2705                    $C$DW$142       .dwtag  DW_TAG_member
    2706                            .dwattr $C$DW$142, DW_AT_type(*$C$DW$T$27)
    2707                            .dwattr $C$DW$142, DW_AT_name("V")
    2708                            .dwattr $C$DW$142, DW_AT_TI_symbol_name("V")
    2709                            .dwattr $C$DW$142, DW_AT_bit_offset(0x03)
    2710                            .dwattr $C$DW$142, DW_AT_bit_size(0x01)
    2711                            .dwattr $C$DW$142, DW_AT_data_member_location[DW_OP_plus_uconst 0x0]
    2712                            .dwattr $C$DW$142, DW_AT_accessibility(DW_ACCESS_public)
    2713                            .dwattr $C$DW$142, DW_AT_decl_file("C:/ti/ccs1040/ccs/ccs_base/arm/include/CMSIS/core_cm4.h")
    2714                            .dwattr $C$DW$142, DW_AT_decl_line(0x109)
    2715                            .dwattr $C$DW$142, DW_AT_decl_column(0x0e)
    2716                    
    2717                    $C$DW$143       .dwtag  DW_TAG_member
    2718                            .dwattr $C$DW$143, DW_AT_type(*$C$DW$T$27)
    2719                            .dwattr $C$DW$143, DW_AT_name("C")
    2720                            .dwattr $C$DW$143, DW_AT_TI_symbol_name("C")
    2721                            .dwattr $C$DW$143, DW_AT_bit_offset(0x02)
    2722                            .dwattr $C$DW$143, DW_AT_bit_size(0x01)
    2723                            .dwattr $C$DW$143, DW_AT_data_member_location[DW_OP_plus_uconst 0x0]
    2724                            .dwattr $C$DW$143, DW_AT_accessibility(DW_ACCESS_public)
    2725                            .dwattr $C$DW$143, DW_AT_decl_file("C:/ti/ccs1040/ccs/ccs_base/arm/include/CMSIS/core_cm4.h")
    2726                            .dwattr $C$DW$143, DW_AT_decl_line(0x10a)
    2727                            .dwattr $C$DW$143, DW_AT_decl_column(0x0e)
    2728                    
    2729                    $C$DW$144       .dwtag  DW_TAG_member
    2730                            .dwattr $C$DW$144, DW_AT_type(*$C$DW$T$27)
    2731                            .dwattr $C$DW$144, DW_AT_name("Z")
    2732                            .dwattr $C$DW$144, DW_AT_TI_symbol_name("Z")
    2733                            .dwattr $C$DW$144, DW_AT_bit_offset(0x01)
    2734                            .dwattr $C$DW$144, DW_AT_bit_size(0x01)
    2735                            .dwattr $C$DW$144, DW_AT_data_member_location[DW_OP_plus_uconst 0x0]
    2736                            .dwattr $C$DW$144, DW_AT_accessibility(DW_ACCESS_public)
    2737                            .dwattr $C$DW$144, DW_AT_decl_file("C:/ti/ccs1040/ccs/ccs_base/arm/include/CMSIS/core_cm4.h")
    2738                            .dwattr $C$DW$144, DW_AT_decl_line(0x10b)
    2739                            .dwattr $C$DW$144, DW_AT_decl_column(0x0e)
    2740                    
TI ARM Assembler PC v20.2.5 Mon Nov 29 14:33:27 2021

Copyright (c) 1996-2018 Texas Instruments Incorporated
C:\Users\PSCHAU~1\AppData\Local\Temp\{DCC34CBA-9535-4573-905C-F9C061991809} PAGE   51

    2741                    $C$DW$145       .dwtag  DW_TAG_member
    2742                            .dwattr $C$DW$145, DW_AT_type(*$C$DW$T$27)
    2743                            .dwattr $C$DW$145, DW_AT_name("N")
    2744                            .dwattr $C$DW$145, DW_AT_TI_symbol_name("N")
    2745                            .dwattr $C$DW$145, DW_AT_bit_offset(0x00)
    2746                            .dwattr $C$DW$145, DW_AT_bit_size(0x01)
    2747                            .dwattr $C$DW$145, DW_AT_data_member_location[DW_OP_plus_uconst 0x0]
    2748                            .dwattr $C$DW$145, DW_AT_accessibility(DW_ACCESS_public)
    2749                            .dwattr $C$DW$145, DW_AT_decl_file("C:/ti/ccs1040/ccs/ccs_base/arm/include/CMSIS/core_cm4.h")
    2750                            .dwattr $C$DW$145, DW_AT_decl_line(0x10c)
    2751                            .dwattr $C$DW$145, DW_AT_decl_column(0x0e)
    2752                    
    2753                            .dwattr $C$DW$T$28, DW_AT_decl_file("C:/ti/ccs1040/ccs/ccs_base/arm/include/CMSIS/core_cm4.h")
    2754                            .dwattr $C$DW$T$28, DW_AT_decl_line(0x104)
    2755                            .dwattr $C$DW$T$28, DW_AT_decl_column(0x03)
    2756                            .dwendtag $C$DW$T$28
    2757                    
    2758                    
    2759                    $C$DW$T$29      .dwtag  DW_TAG_structure_type
    2760                            .dwattr $C$DW$T$29, DW_AT_byte_size(0x04)
    2761                    $C$DW$146       .dwtag  DW_TAG_member
    2762                            .dwattr $C$DW$146, DW_AT_type(*$C$DW$T$27)
    2763                            .dwattr $C$DW$146, DW_AT_name("ISR")
    2764                            .dwattr $C$DW$146, DW_AT_TI_symbol_name("ISR")
    2765                            .dwattr $C$DW$146, DW_AT_bit_offset(0x17)
    2766                            .dwattr $C$DW$146, DW_AT_bit_size(0x09)
    2767                            .dwattr $C$DW$146, DW_AT_data_member_location[DW_OP_plus_uconst 0x0]
    2768                            .dwattr $C$DW$146, DW_AT_accessibility(DW_ACCESS_public)
    2769                            .dwattr $C$DW$146, DW_AT_decl_file("C:/ti/ccs1040/ccs/ccs_base/arm/include/CMSIS/core_cm4.h")
    2770                            .dwattr $C$DW$146, DW_AT_decl_line(0x12c)
    2771                            .dwattr $C$DW$146, DW_AT_decl_column(0x0e)
    2772                    
    2773                    $C$DW$147       .dwtag  DW_TAG_member
    2774                            .dwattr $C$DW$147, DW_AT_type(*$C$DW$T$27)
    2775                            .dwattr $C$DW$147, DW_AT_name("_reserved0")
    2776                            .dwattr $C$DW$147, DW_AT_TI_symbol_name("_reserved0")
    2777                            .dwattr $C$DW$147, DW_AT_bit_offset(0x00)
    2778                            .dwattr $C$DW$147, DW_AT_bit_size(0x17)
    2779                            .dwattr $C$DW$147, DW_AT_data_member_location[DW_OP_plus_uconst 0x0]
    2780                            .dwattr $C$DW$147, DW_AT_accessibility(DW_ACCESS_public)
    2781                            .dwattr $C$DW$147, DW_AT_decl_file("C:/ti/ccs1040/ccs/ccs_base/arm/include/CMSIS/core_cm4.h")
    2782                            .dwattr $C$DW$147, DW_AT_decl_line(0x12d)
    2783                            .dwattr $C$DW$147, DW_AT_decl_column(0x0e)
    2784                    
    2785                            .dwattr $C$DW$T$29, DW_AT_decl_file("C:/ti/ccs1040/ccs/ccs_base/arm/include/CMSIS/core_cm4.h")
    2786                            .dwattr $C$DW$T$29, DW_AT_decl_line(0x12b)
    2787                            .dwattr $C$DW$T$29, DW_AT_decl_column(0x03)
    2788                            .dwendtag $C$DW$T$29
    2789                    
    2790                    
    2791                    $C$DW$T$30      .dwtag  DW_TAG_structure_type
    2792                            .dwattr $C$DW$T$30, DW_AT_byte_size(0x04)
    2793                    $C$DW$148       .dwtag  DW_TAG_member
    2794                            .dwattr $C$DW$148, DW_AT_type(*$C$DW$T$27)
    2795                            .dwattr $C$DW$148, DW_AT_name("ISR")
TI ARM Assembler PC v20.2.5 Mon Nov 29 14:33:27 2021

Copyright (c) 1996-2018 Texas Instruments Incorporated
C:\Users\PSCHAU~1\AppData\Local\Temp\{DCC34CBA-9535-4573-905C-F9C061991809} PAGE   52

    2796                            .dwattr $C$DW$148, DW_AT_TI_symbol_name("ISR")
    2797                            .dwattr $C$DW$148, DW_AT_bit_offset(0x17)
    2798                            .dwattr $C$DW$148, DW_AT_bit_size(0x09)
    2799                            .dwattr $C$DW$148, DW_AT_data_member_location[DW_OP_plus_uconst 0x0]
    2800                            .dwattr $C$DW$148, DW_AT_accessibility(DW_ACCESS_public)
    2801                            .dwattr $C$DW$148, DW_AT_decl_file("C:/ti/ccs1040/ccs/ccs_base/arm/include/CMSIS/core_cm4.h")
    2802                            .dwattr $C$DW$148, DW_AT_decl_line(0x13e)
    2803                            .dwattr $C$DW$148, DW_AT_decl_column(0x0e)
    2804                    
    2805                    $C$DW$149       .dwtag  DW_TAG_member
    2806                            .dwattr $C$DW$149, DW_AT_type(*$C$DW$T$27)
    2807                            .dwattr $C$DW$149, DW_AT_name("_reserved0")
    2808                            .dwattr $C$DW$149, DW_AT_TI_symbol_name("_reserved0")
    2809                            .dwattr $C$DW$149, DW_AT_bit_offset(0x16)
    2810                            .dwattr $C$DW$149, DW_AT_bit_size(0x01)
    2811                            .dwattr $C$DW$149, DW_AT_data_member_location[DW_OP_plus_uconst 0x0]
    2812                            .dwattr $C$DW$149, DW_AT_accessibility(DW_ACCESS_public)
    2813                            .dwattr $C$DW$149, DW_AT_decl_file("C:/ti/ccs1040/ccs/ccs_base/arm/include/CMSIS/core_cm4.h")
    2814                            .dwattr $C$DW$149, DW_AT_decl_line(0x13f)
    2815                            .dwattr $C$DW$149, DW_AT_decl_column(0x0e)
    2816                    
    2817                    $C$DW$150       .dwtag  DW_TAG_member
    2818                            .dwattr $C$DW$150, DW_AT_type(*$C$DW$T$27)
    2819                            .dwattr $C$DW$150, DW_AT_name("ICI_IT_1")
    2820                            .dwattr $C$DW$150, DW_AT_TI_symbol_name("ICI_IT_1")
    2821                            .dwattr $C$DW$150, DW_AT_bit_offset(0x10)
    2822                            .dwattr $C$DW$150, DW_AT_bit_size(0x06)
    2823                            .dwattr $C$DW$150, DW_AT_data_member_location[DW_OP_plus_uconst 0x0]
    2824                            .dwattr $C$DW$150, DW_AT_accessibility(DW_ACCESS_public)
    2825                            .dwattr $C$DW$150, DW_AT_decl_file("C:/ti/ccs1040/ccs/ccs_base/arm/include/CMSIS/core_cm4.h")
    2826                            .dwattr $C$DW$150, DW_AT_decl_line(0x140)
    2827                            .dwattr $C$DW$150, DW_AT_decl_column(0x0e)
    2828                    
    2829                    $C$DW$151       .dwtag  DW_TAG_member
    2830                            .dwattr $C$DW$151, DW_AT_type(*$C$DW$T$27)
    2831                            .dwattr $C$DW$151, DW_AT_name("GE")
    2832                            .dwattr $C$DW$151, DW_AT_TI_symbol_name("GE")
    2833                            .dwattr $C$DW$151, DW_AT_bit_offset(0x0c)
    2834                            .dwattr $C$DW$151, DW_AT_bit_size(0x04)
    2835                            .dwattr $C$DW$151, DW_AT_data_member_location[DW_OP_plus_uconst 0x0]
    2836                            .dwattr $C$DW$151, DW_AT_accessibility(DW_ACCESS_public)
    2837                            .dwattr $C$DW$151, DW_AT_decl_file("C:/ti/ccs1040/ccs/ccs_base/arm/include/CMSIS/core_cm4.h")
    2838                            .dwattr $C$DW$151, DW_AT_decl_line(0x141)
    2839                            .dwattr $C$DW$151, DW_AT_decl_column(0x0e)
    2840                    
    2841                    $C$DW$152       .dwtag  DW_TAG_member
    2842                            .dwattr $C$DW$152, DW_AT_type(*$C$DW$T$27)
    2843                            .dwattr $C$DW$152, DW_AT_name("_reserved1")
    2844                            .dwattr $C$DW$152, DW_AT_TI_symbol_name("_reserved1")
    2845                            .dwattr $C$DW$152, DW_AT_bit_offset(0x08)
    2846                            .dwattr $C$DW$152, DW_AT_bit_size(0x04)
    2847                            .dwattr $C$DW$152, DW_AT_data_member_location[DW_OP_plus_uconst 0x0]
    2848                            .dwattr $C$DW$152, DW_AT_accessibility(DW_ACCESS_public)
    2849                            .dwattr $C$DW$152, DW_AT_decl_file("C:/ti/ccs1040/ccs/ccs_base/arm/include/CMSIS/core_cm4.h")
    2850                            .dwattr $C$DW$152, DW_AT_decl_line(0x142)
TI ARM Assembler PC v20.2.5 Mon Nov 29 14:33:27 2021

Copyright (c) 1996-2018 Texas Instruments Incorporated
C:\Users\PSCHAU~1\AppData\Local\Temp\{DCC34CBA-9535-4573-905C-F9C061991809} PAGE   53

    2851                            .dwattr $C$DW$152, DW_AT_decl_column(0x0e)
    2852                    
    2853                    $C$DW$153       .dwtag  DW_TAG_member
    2854                            .dwattr $C$DW$153, DW_AT_type(*$C$DW$T$27)
    2855                            .dwattr $C$DW$153, DW_AT_name("T")
    2856                            .dwattr $C$DW$153, DW_AT_TI_symbol_name("T")
    2857                            .dwattr $C$DW$153, DW_AT_bit_offset(0x07)
    2858                            .dwattr $C$DW$153, DW_AT_bit_size(0x01)
    2859                            .dwattr $C$DW$153, DW_AT_data_member_location[DW_OP_plus_uconst 0x0]
    2860                            .dwattr $C$DW$153, DW_AT_accessibility(DW_ACCESS_public)
    2861                            .dwattr $C$DW$153, DW_AT_decl_file("C:/ti/ccs1040/ccs/ccs_base/arm/include/CMSIS/core_cm4.h")
    2862                            .dwattr $C$DW$153, DW_AT_decl_line(0x143)
    2863                            .dwattr $C$DW$153, DW_AT_decl_column(0x0e)
    2864                    
    2865                    $C$DW$154       .dwtag  DW_TAG_member
    2866                            .dwattr $C$DW$154, DW_AT_type(*$C$DW$T$27)
    2867                            .dwattr $C$DW$154, DW_AT_name("ICI_IT_2")
    2868                            .dwattr $C$DW$154, DW_AT_TI_symbol_name("ICI_IT_2")
    2869                            .dwattr $C$DW$154, DW_AT_bit_offset(0x05)
    2870                            .dwattr $C$DW$154, DW_AT_bit_size(0x02)
    2871                            .dwattr $C$DW$154, DW_AT_data_member_location[DW_OP_plus_uconst 0x0]
    2872                            .dwattr $C$DW$154, DW_AT_accessibility(DW_ACCESS_public)
    2873                            .dwattr $C$DW$154, DW_AT_decl_file("C:/ti/ccs1040/ccs/ccs_base/arm/include/CMSIS/core_cm4.h")
    2874                            .dwattr $C$DW$154, DW_AT_decl_line(0x144)
    2875                            .dwattr $C$DW$154, DW_AT_decl_column(0x0e)
    2876                    
    2877                    $C$DW$155       .dwtag  DW_TAG_member
    2878                            .dwattr $C$DW$155, DW_AT_type(*$C$DW$T$27)
    2879                            .dwattr $C$DW$155, DW_AT_name("Q")
    2880                            .dwattr $C$DW$155, DW_AT_TI_symbol_name("Q")
    2881                            .dwattr $C$DW$155, DW_AT_bit_offset(0x04)
    2882                            .dwattr $C$DW$155, DW_AT_bit_size(0x01)
    2883                            .dwattr $C$DW$155, DW_AT_data_member_location[DW_OP_plus_uconst 0x0]
    2884                            .dwattr $C$DW$155, DW_AT_accessibility(DW_ACCESS_public)
    2885                            .dwattr $C$DW$155, DW_AT_decl_file("C:/ti/ccs1040/ccs/ccs_base/arm/include/CMSIS/core_cm4.h")
    2886                            .dwattr $C$DW$155, DW_AT_decl_line(0x145)
    2887                            .dwattr $C$DW$155, DW_AT_decl_column(0x0e)
    2888                    
    2889                    $C$DW$156       .dwtag  DW_TAG_member
    2890                            .dwattr $C$DW$156, DW_AT_type(*$C$DW$T$27)
    2891                            .dwattr $C$DW$156, DW_AT_name("V")
    2892                            .dwattr $C$DW$156, DW_AT_TI_symbol_name("V")
    2893                            .dwattr $C$DW$156, DW_AT_bit_offset(0x03)
    2894                            .dwattr $C$DW$156, DW_AT_bit_size(0x01)
    2895                            .dwattr $C$DW$156, DW_AT_data_member_location[DW_OP_plus_uconst 0x0]
    2896                            .dwattr $C$DW$156, DW_AT_accessibility(DW_ACCESS_public)
    2897                            .dwattr $C$DW$156, DW_AT_decl_file("C:/ti/ccs1040/ccs/ccs_base/arm/include/CMSIS/core_cm4.h")
    2898                            .dwattr $C$DW$156, DW_AT_decl_line(0x146)
    2899                            .dwattr $C$DW$156, DW_AT_decl_column(0x0e)
    2900                    
    2901                    $C$DW$157       .dwtag  DW_TAG_member
    2902                            .dwattr $C$DW$157, DW_AT_type(*$C$DW$T$27)
    2903                            .dwattr $C$DW$157, DW_AT_name("C")
    2904                            .dwattr $C$DW$157, DW_AT_TI_symbol_name("C")
    2905                            .dwattr $C$DW$157, DW_AT_bit_offset(0x02)
TI ARM Assembler PC v20.2.5 Mon Nov 29 14:33:27 2021

Copyright (c) 1996-2018 Texas Instruments Incorporated
C:\Users\PSCHAU~1\AppData\Local\Temp\{DCC34CBA-9535-4573-905C-F9C061991809} PAGE   54

    2906                            .dwattr $C$DW$157, DW_AT_bit_size(0x01)
    2907                            .dwattr $C$DW$157, DW_AT_data_member_location[DW_OP_plus_uconst 0x0]
    2908                            .dwattr $C$DW$157, DW_AT_accessibility(DW_ACCESS_public)
    2909                            .dwattr $C$DW$157, DW_AT_decl_file("C:/ti/ccs1040/ccs/ccs_base/arm/include/CMSIS/core_cm4.h")
    2910                            .dwattr $C$DW$157, DW_AT_decl_line(0x147)
    2911                            .dwattr $C$DW$157, DW_AT_decl_column(0x0e)
    2912                    
    2913                    $C$DW$158       .dwtag  DW_TAG_member
    2914                            .dwattr $C$DW$158, DW_AT_type(*$C$DW$T$27)
    2915                            .dwattr $C$DW$158, DW_AT_name("Z")
    2916                            .dwattr $C$DW$158, DW_AT_TI_symbol_name("Z")
    2917                            .dwattr $C$DW$158, DW_AT_bit_offset(0x01)
    2918                            .dwattr $C$DW$158, DW_AT_bit_size(0x01)
    2919                            .dwattr $C$DW$158, DW_AT_data_member_location[DW_OP_plus_uconst 0x0]
    2920                            .dwattr $C$DW$158, DW_AT_accessibility(DW_ACCESS_public)
    2921                            .dwattr $C$DW$158, DW_AT_decl_file("C:/ti/ccs1040/ccs/ccs_base/arm/include/CMSIS/core_cm4.h")
    2922                            .dwattr $C$DW$158, DW_AT_decl_line(0x148)
    2923                            .dwattr $C$DW$158, DW_AT_decl_column(0x0e)
    2924                    
    2925                    $C$DW$159       .dwtag  DW_TAG_member
    2926                            .dwattr $C$DW$159, DW_AT_type(*$C$DW$T$27)
    2927                            .dwattr $C$DW$159, DW_AT_name("N")
    2928                            .dwattr $C$DW$159, DW_AT_TI_symbol_name("N")
    2929                            .dwattr $C$DW$159, DW_AT_bit_offset(0x00)
    2930                            .dwattr $C$DW$159, DW_AT_bit_size(0x01)
    2931                            .dwattr $C$DW$159, DW_AT_data_member_location[DW_OP_plus_uconst 0x0]
    2932                            .dwattr $C$DW$159, DW_AT_accessibility(DW_ACCESS_public)
    2933                            .dwattr $C$DW$159, DW_AT_decl_file("C:/ti/ccs1040/ccs/ccs_base/arm/include/CMSIS/core_cm4.h")
    2934                            .dwattr $C$DW$159, DW_AT_decl_line(0x149)
    2935                            .dwattr $C$DW$159, DW_AT_decl_column(0x0e)
    2936                    
    2937                            .dwattr $C$DW$T$30, DW_AT_decl_file("C:/ti/ccs1040/ccs/ccs_base/arm/include/CMSIS/core_cm4.h")
    2938                            .dwattr $C$DW$T$30, DW_AT_decl_line(0x13d)
    2939                            .dwattr $C$DW$T$30, DW_AT_decl_column(0x03)
    2940                            .dwendtag $C$DW$T$30
    2941                    
    2942                    
    2943                    $C$DW$T$31      .dwtag  DW_TAG_structure_type
    2944                            .dwattr $C$DW$T$31, DW_AT_byte_size(0x04)
    2945                    $C$DW$160       .dwtag  DW_TAG_member
    2946                            .dwattr $C$DW$160, DW_AT_type(*$C$DW$T$27)
    2947                            .dwattr $C$DW$160, DW_AT_name("nPRIV")
    2948                            .dwattr $C$DW$160, DW_AT_TI_symbol_name("nPRIV")
    2949                            .dwattr $C$DW$160, DW_AT_bit_offset(0x1f)
    2950                            .dwattr $C$DW$160, DW_AT_bit_size(0x01)
    2951                            .dwattr $C$DW$160, DW_AT_data_member_location[DW_OP_plus_uconst 0x0]
    2952                            .dwattr $C$DW$160, DW_AT_accessibility(DW_ACCESS_public)
    2953                            .dwattr $C$DW$160, DW_AT_decl_file("C:/ti/ccs1040/ccs/ccs_base/arm/include/CMSIS/core_cm4.h")
    2954                            .dwattr $C$DW$160, DW_AT_decl_line(0x175)
    2955                            .dwattr $C$DW$160, DW_AT_decl_column(0x0e)
    2956                    
    2957                    $C$DW$161       .dwtag  DW_TAG_member
    2958                            .dwattr $C$DW$161, DW_AT_type(*$C$DW$T$27)
    2959                            .dwattr $C$DW$161, DW_AT_name("SPSEL")
    2960                            .dwattr $C$DW$161, DW_AT_TI_symbol_name("SPSEL")
TI ARM Assembler PC v20.2.5 Mon Nov 29 14:33:27 2021

Copyright (c) 1996-2018 Texas Instruments Incorporated
C:\Users\PSCHAU~1\AppData\Local\Temp\{DCC34CBA-9535-4573-905C-F9C061991809} PAGE   55

